In archive rustlib.a:

aligned-ac4c74f7db479cdd.aligned.dh517wkj-cgu.0.rcgu.o:     file format elf32-littlearm

SYMBOL TABLE:
00000000 l    df *ABS*	00000000 aligned.dh517wkj-cgu.0



aligned-d2d7ab7e76753d31.aligned.5pxswca9-cgu.0.rcgu.o:     file format elf32-littlearm

SYMBOL TABLE:
00000000 l    df *ABS*	00000000 aligned.5pxswca9-cgu.0



as_slice-676fe2e89d8f062c.as_slice.94cmsaf5-cgu.0.rcgu.o:     file format elf32-littlearm

SYMBOL TABLE:
00000000 l    df *ABS*	00000000 as_slice.94cmsaf5-cgu.0



bare_metal-3ae70c18e06d1c84.bare_metal.6b5wxvxx-cgu.0.rcgu.o:     file format elf32-littlearm

SYMBOL TABLE:
00000000 l    df *ABS*	00000000 bare_metal.6b5wxvxx-cgu.0
00000000 l       .debug_str	00000000 
00000041 l       .debug_str	00000000 
0000009b l       .debug_str	00000000 
000000ea l       .debug_str	00000000 
000000f5 l       .debug_str	00000000 
000000f8 l       .debug_str	00000000 
000000fb l       .debug_str	00000000 
0000010b l       .debug_str	00000000 
00000144 l       .debug_str	00000000 
00000000 l    d  .text._ZN10bare_metal15CriticalSection3new17h576fd06ec8ed84f9E	00000000 .text._ZN10bare_metal15CriticalSection3new17h576fd06ec8ed84f9E
00000000 l    d  .debug_abbrev	00000000 .debug_abbrev
00000000 l    d  .debug_info	00000000 .debug_info
00000000 l    d  .debug_frame	00000000 .debug_frame
00000000 l    d  .debug_line	00000000 .debug_line
00000000 g     F .text._ZN10bare_metal15CriticalSection3new17h576fd06ec8ed84f9E	00000002 _ZN10bare_metal15CriticalSection3new17h576fd06ec8ed84f9E



Disassembly of section .text._ZN10bare_metal15CriticalSection3new17h576fd06ec8ed84f9E:

00000000 <_ZN10bare_metal15CriticalSection3new17h576fd06ec8ed84f9E>:
_ZN10bare_metal15CriticalSection3new17h576fd06ec8ed84f9E():
/home/breetai/.cargo/registry/src/github.com-1ecc6299db9ec823/bare-metal-0.2.5/src/lib.rs:53
    ///
    /// This method is meant to be used to create safe abstractions rather than
    /// meant to be directly used in applications.
    pub unsafe fn new() -> Self {
        CriticalSection { _0: () }
    }
   0:	4770      	bx	lr

cortex_m-28ff901b1fd66a59.cortex_m.c4wcnisn-cgu.0.rcgu.o:     file format elf32-littlearm

SYMBOL TABLE:
00000000 l    df *ABS*	00000000 cortex_m.c4wcnisn-cgu.0
00000000 l       .debug_str	00000000 
00000041 l       .debug_str	00000000 
0000009a l       .debug_str	00000000 
000000e8 l       .debug_str	00000000 
000000ed l       .debug_str	00000000 
000000f1 l       .debug_str	00000000 
000000f4 l       .debug_str	00000000 
000000f6 l       .debug_str	00000000 
00000126 l       .debug_str	00000000 
00000138 l       .debug_str	00000000 
0000013c l       .debug_str	00000000 
00000000 l    d  .text._ZN4core3ptr13read_volatile17h27f6a6d0639c3ab7E	00000000 .text._ZN4core3ptr13read_volatile17h27f6a6d0639c3ab7E
00000000 l    d  .debug_abbrev	00000000 .debug_abbrev
00000000 l    d  .debug_info	00000000 .debug_info
00000000 l    d  .debug_frame	00000000 .debug_frame
00000000 l    d  .debug_line	00000000 .debug_line
00000000 g     F .text._ZN4core3ptr13read_volatile17h27f6a6d0639c3ab7E	00000018 _ZN4core3ptr13read_volatile17h27f6a6d0639c3ab7E



Disassembly of section .text._ZN4core3ptr13read_volatile17h27f6a6d0639c3ab7E:

00000000 <_ZN4core3ptr13read_volatile17h27f6a6d0639c3ab7E>:
_ZN4core3ptr13read_volatile17h27f6a6d0639c3ab7E():
/home/breetai/.rustup/toolchains/nightly-x86_64-unknown-linux-gnu/lib/rustlib/src/rust/src/libcore/ptr/mod.rs:999
///     assert_eq!(std::ptr::read_volatile(y), 12);
/// }
/// ```
#[inline]
#[stable(feature = "volatile", since = "1.9.0")]
pub unsafe fn read_volatile<T>(src: *const T) -> T {
   0:	b083      	sub	sp, #12
   2:	9001      	str	r0, [sp, #4]
/home/breetai/.rustup/toolchains/nightly-x86_64-unknown-linux-gnu/lib/rustlib/src/rust/src/libcore/ptr/mod.rs:1001
    debug_assert!(is_aligned_and_not_null(src), "attempt to read from unaligned or null pointer");
    intrinsics::volatile_load(src)
   4:	7800      	ldrb	r0, [r0, #0]
   6:	f88d 000b 	strb.w	r0, [sp, #11]
   a:	f89d 000b 	ldrb.w	r0, [sp, #11]
   e:	9000      	str	r0, [sp, #0]
  10:	e7ff      	b.n	12 <_ZN4core3ptr13read_volatile17h27f6a6d0639c3ab7E+0x12>
/home/breetai/.rustup/toolchains/nightly-x86_64-unknown-linux-gnu/lib/rustlib/src/rust/src/libcore/ptr/mod.rs:1002
}
  12:	9800      	ldr	r0, [sp, #0]
  14:	b003      	add	sp, #12
  16:	4770      	bx	lr

cortex_m-28ff901b1fd66a59.cortex_m.c4wcnisn-cgu.1.rcgu.o:     file format elf32-littlearm

SYMBOL TABLE:
00000000 l    df *ABS*	00000000 cortex_m.c4wcnisn-cgu.1
00000000 l       .debug_str	00000000 
00000041 l       .debug_str	00000000 
0000009a l       .debug_str	00000000 
000000e8 l       .debug_str	00000000 
000000ed l       .debug_str	00000000 
000000f2 l       .debug_str	00000000 
000000f8 l       .debug_str	00000000 
000000fb l       .debug_str	00000000 
000000fd l       .debug_str	00000000 
0000010c l       .debug_str	00000000 
00000147 l       .debug_str	00000000 
0000014f l       .debug_str	00000000 
00000157 l       .debug_str	00000000 
0000015c l       .debug_str	00000000 
00000000 l    d  .text._ZN4core4cell19UnsafeCell$LT$T$GT$3get17h4a78192b6ea74fbaE	00000000 .text._ZN4core4cell19UnsafeCell$LT$T$GT$3get17h4a78192b6ea74fbaE
00000000 l    d  .debug_abbrev	00000000 .debug_abbrev
00000000 l    d  .debug_info	00000000 .debug_info
00000000 l    d  .debug_frame	00000000 .debug_frame
00000000 l    d  .debug_line	00000000 .debug_line
00000000 g     F .text._ZN4core4cell19UnsafeCell$LT$T$GT$3get17h4a78192b6ea74fbaE	00000008 _ZN4core4cell19UnsafeCell$LT$T$GT$3get17h4a78192b6ea74fbaE



Disassembly of section .text._ZN4core4cell19UnsafeCell$LT$T$GT$3get17h4a78192b6ea74fbaE:

00000000 <_ZN4core4cell19UnsafeCell$LT$T$GT$3get17h4a78192b6ea74fbaE>:
_ZN4core4cell19UnsafeCell$LT$T$GT$3get17h4a78192b6ea74fbaE():
/home/breetai/.rustup/toolchains/nightly-x86_64-unknown-linux-gnu/lib/rustlib/src/rust/src/libcore/cell.rs:1663
    /// let five = uc.get();
    /// ```
    #[inline]
    #[stable(feature = "rust1", since = "1.0.0")]
    #[rustc_const_stable(feature = "const_unsafecell_get", since = "1.32.0")]
    pub const fn get(&self) -> *mut T {
   0:	b081      	sub	sp, #4
   2:	9000      	str	r0, [sp, #0]
/home/breetai/.rustup/toolchains/nightly-x86_64-unknown-linux-gnu/lib/rustlib/src/rust/src/libcore/cell.rs:1668
        // We can just cast the pointer from `UnsafeCell<T>` to `T` because of
        // #[repr(transparent)]. This exploits libstd's special status, there is
        // no guarantee for user code that this will work in future versions of the compiler!
        self as *const UnsafeCell<T> as *const T as *mut T
    }
   4:	b001      	add	sp, #4
   6:	4770      	bx	lr

cortex_m-28ff901b1fd66a59.cortex_m.c4wcnisn-cgu.2.rcgu.o:     file format elf32-littlearm

SYMBOL TABLE:
00000000 l    df *ABS*	00000000 cortex_m.c4wcnisn-cgu.2
00000000 l       .debug_str	00000000 
00000041 l       .debug_str	00000000 
0000009a l       .debug_str	00000000 
000000e8 l       .debug_str	00000000 
000000f1 l       .debug_str	00000000 
000000f5 l       .debug_str	00000000 
0000011e l       .debug_str	00000000 
00000122 l       .debug_str	00000000 
0000014b l       .debug_str	00000000 
00000000 l    d  .text._ZN8cortex_m3asm3dsb17h4d65209c1fd395baE	00000000 .text._ZN8cortex_m3asm3dsb17h4d65209c1fd395baE
00000000 l    d  .text._ZN8cortex_m3asm3nop17h628173fbcacc68f8E	00000000 .text._ZN8cortex_m3asm3nop17h628173fbcacc68f8E
00000000 l    d  .debug_abbrev	00000000 .debug_abbrev
00000000 l    d  .debug_info	00000000 .debug_info
00000000 l    d  .debug_ranges	00000000 .debug_ranges
00000000 l    d  .debug_frame	00000000 .debug_frame
00000000 l    d  .debug_line	00000000 .debug_line
00000000 g     F .text._ZN8cortex_m3asm3dsb17h4d65209c1fd395baE	0000000c .hidden _ZN8cortex_m3asm3dsb17h4d65209c1fd395baE
00000000 g     F .text._ZN8cortex_m3asm3nop17h628173fbcacc68f8E	0000000c .hidden _ZN8cortex_m3asm3nop17h628173fbcacc68f8E
00000000         *UND*	00000000 __dsb
00000000         *UND*	00000000 __nop



Disassembly of section .text._ZN8cortex_m3asm3dsb17h4d65209c1fd395baE:

00000000 <_ZN8cortex_m3asm3dsb17h4d65209c1fd395baE>:
_ZN8cortex_m3asm3dsb17h4d65209c1fd395baE():
/home/breetai/.cargo/registry/src/github.com-1ecc6299db9ec823/cortex-m-0.6.2/src/asm.rs:180
/// can execute until this instruction completes. This instruction completes only when both:
///
///  * any explicit memory access made before this instruction is complete
///  * all cache and branch predictor maintenance operations before this instruction complete
#[inline]
pub fn dsb() {
   0:	b580      	push	{r7, lr}
   2:	466f      	mov	r7, sp
/home/breetai/.cargo/registry/src/github.com-1ecc6299db9ec823/cortex-m-0.6.2/src/asm.rs:191
        () => unsafe {
            extern "C" {
                fn __dsb();
            }

            __dsb()
   4:	f7ff fffe 	bl	0 <__dsb>
   8:	e7ff      	b.n	a <_ZN8cortex_m3asm3dsb17h4d65209c1fd395baE+0xa>
/home/breetai/.cargo/registry/src/github.com-1ecc6299db9ec823/cortex-m-0.6.2/src/asm.rs:198
        },

        #[cfg(not(cortex_m))]
        () => unimplemented!(),
    }
}
   a:	bd80      	pop	{r7, pc}

Disassembly of section .text._ZN8cortex_m3asm3nop17h628173fbcacc68f8E:

00000000 <_ZN8cortex_m3asm3nop17h628173fbcacc68f8E>:
_ZN8cortex_m3asm3nop17h628173fbcacc68f8E():
/home/breetai/.cargo/registry/src/github.com-1ecc6299db9ec823/cortex-m-0.6.2/src/asm.rs:65
pub fn nop() {
   0:	b580      	push	{r7, lr}
   2:	466f      	mov	r7, sp
/home/breetai/.cargo/registry/src/github.com-1ecc6299db9ec823/cortex-m-0.6.2/src/asm.rs:76
            __nop()
   4:	f7ff fffe 	bl	0 <__nop>
   8:	e7ff      	b.n	a <_ZN8cortex_m3asm3nop17h628173fbcacc68f8E+0xa>
/home/breetai/.cargo/registry/src/github.com-1ecc6299db9ec823/cortex-m-0.6.2/src/asm.rs:82
}
   a:	bd80      	pop	{r7, pc}

cortex_m-28ff901b1fd66a59.cortex_m.c4wcnisn-cgu.3.rcgu.o:     file format elf32-littlearm

SYMBOL TABLE:
00000000 l    df *ABS*	00000000 cortex_m.c4wcnisn-cgu.3
00000000 l       .debug_str	00000000 
00000041 l       .debug_str	00000000 
0000009a l       .debug_str	00000000 
000000e8 l       .debug_str	00000000 
000000f1 l       .debug_str	00000000 
000000fc l       .debug_str	00000000 
00000100 l       .debug_str	00000000 
00000109 l       .debug_str	00000000 
0000011e l       .debug_str	00000000 
000001b0 l       .debug_str	00000000 
000001bc l       .debug_str	00000000 
000001c0 l       .debug_str	00000000 
000001ca l       .debug_str	00000000 
00000000 l    d  .text._ZN8cortex_m10peripheral3dwt43_$LT$impl$u20$cortex_m..peripheral..DWT$GT$20enable_cycle_counter28_$u7b$$u7b$closure$u7d$$u7d$17h1cf31328dec855cdE	00000000 .text._ZN8cortex_m10peripheral3dwt43_$LT$impl$u20$cortex_m..peripheral..DWT$GT$20enable_cycle_counter28_$u7b$$u7b$closure$u7d$$u7d$17h1cf31328dec855cdE
00000000 l    d  .debug_abbrev	00000000 .debug_abbrev
00000000 l    d  .debug_info	00000000 .debug_info
00000000 l    d  .debug_frame	00000000 .debug_frame
00000000 l    d  .debug_line	00000000 .debug_line
00000000 g     F .text._ZN8cortex_m10peripheral3dwt43_$LT$impl$u20$cortex_m..peripheral..DWT$GT$20enable_cycle_counter28_$u7b$$u7b$closure$u7d$$u7d$17h1cf31328dec855cdE	0000000c .hidden _ZN8cortex_m10peripheral3dwt43_$LT$impl$u20$cortex_m..peripheral..DWT$GT$20enable_cycle_counter28_$u7b$$u7b$closure$u7d$$u7d$17h1cf31328dec855cdE



Disassembly of section .text._ZN8cortex_m10peripheral3dwt43_$LT$impl$u20$cortex_m..peripheral..DWT$GT$20enable_cycle_counter28_$u7b$$u7b$closure$u7d$$u7d$17h1cf31328dec855cdE:

00000000 <_ZN8cortex_m10peripheral3dwt43_$LT$impl$u20$cortex_m..peripheral..DWT$GT$20enable_cycle_counter28_$u7b$$u7b$closure$u7d$$u7d$17h1cf31328dec855cdE>:
_ZN8cortex_m10peripheral3dwt43_$LT$impl$u20$cortex_m..peripheral..DWT$GT$20enable_cycle_counter28_$u7b$$u7b$closure$u7d$$u7d$17h1cf31328dec855cdE():
/home/breetai/.cargo/registry/src/github.com-1ecc6299db9ec823/cortex-m-0.5.10/src/peripheral/dwt.rs:40
pub use cortex_m_0_6::peripheral::dwt::Comparator;

impl DWT {
    /// Enables the cycle counter
    pub fn enable_cycle_counter(&mut self) {
        unsafe { self.ctrl.modify(|r| r | 1) }
   0:	b082      	sub	sp, #8
   2:	9001      	str	r0, [sp, #4]
   4:	f040 0001 	orr.w	r0, r0, #1
   8:	b002      	add	sp, #8
   a:	4770      	bx	lr

cortex_m-28ff901b1fd66a59.cortex_m.c4wcnisn-cgu.4.rcgu.o:     file format elf32-littlearm

SYMBOL TABLE:
00000000 l    df *ABS*	00000000 cortex_m.c4wcnisn-cgu.4
00000000 l       .debug_str	00000000 
00000041 l       .debug_str	00000000 
0000009a l       .debug_str	00000000 
000000e8 l       .debug_str	00000000 
000000ed l       .debug_str	00000000 
000000f5 l       .debug_str	00000000 
000000f9 l       .debug_str	00000000 
00000102 l       .debug_str	00000000 
00000173 l       .debug_str	00000000 
00000178 l       .debug_str	00000000 
0000017e l       .debug_str	00000000 
00000184 l       .debug_str	00000000 
00000000 l    d  .text._ZN4core7convert3num65_$LT$impl$u20$core..convert..From$LT$u8$GT$$u20$for$u20$usize$GT$4from17ha930bdfe819cbbdcE	00000000 .text._ZN4core7convert3num65_$LT$impl$u20$core..convert..From$LT$u8$GT$$u20$for$u20$usize$GT$4from17ha930bdfe819cbbdcE
00000000 l    d  .debug_abbrev	00000000 .debug_abbrev
00000000 l    d  .debug_info	00000000 .debug_info
00000000 l    d  .debug_frame	00000000 .debug_frame
00000000 l    d  .debug_line	00000000 .debug_line
00000000 g     F .text._ZN4core7convert3num65_$LT$impl$u20$core..convert..From$LT$u8$GT$$u20$for$u20$usize$GT$4from17ha930bdfe819cbbdcE	0000000e .hidden _ZN4core7convert3num65_$LT$impl$u20$core..convert..From$LT$u8$GT$$u20$for$u20$usize$GT$4from17ha930bdfe819cbbdcE



Disassembly of section .text._ZN4core7convert3num65_$LT$impl$u20$core..convert..From$LT$u8$GT$$u20$for$u20$usize$GT$4from17ha930bdfe819cbbdcE:

00000000 <_ZN4core7convert3num65_$LT$impl$u20$core..convert..From$LT$u8$GT$$u20$for$u20$usize$GT$4from17ha930bdfe819cbbdcE>:
_ZN4core7convert3num65_$LT$impl$u20$core..convert..From$LT$u8$GT$$u20$for$u20$usize$GT$4from17ha930bdfe819cbbdcE():
/home/breetai/.rustup/toolchains/nightly-x86_64-unknown-linux-gnu/lib/rustlib/src/rust/src/libcore/convert/num.rs:50
    ($Small: ty, $Large: ty, #[$attr:meta], $doc: expr) => {
        #[$attr]
        #[doc = $doc]
        impl From<$Small> for $Large {
            #[inline]
            fn from(small: $Small) -> Self {
   0:	b081      	sub	sp, #4
   2:	4601      	mov	r1, r0
   4:	f88d 0003 	strb.w	r0, [sp, #3]
/home/breetai/.rustup/toolchains/nightly-x86_64-unknown-linux-gnu/lib/rustlib/src/rust/src/libcore/convert/num.rs:51
                small as Self
   8:	b2c0      	uxtb	r0, r0
/home/breetai/.rustup/toolchains/nightly-x86_64-unknown-linux-gnu/lib/rustlib/src/rust/src/libcore/convert/num.rs:52
            }
   a:	b001      	add	sp, #4
   c:	4770      	bx	lr

cortex_m-28ff901b1fd66a59.cortex_m.c4wcnisn-cgu.5.rcgu.o:     file format elf32-littlearm

SYMBOL TABLE:
00000000 l    df *ABS*	00000000 cortex_m.c4wcnisn-cgu.5
00000000 l       .debug_str	00000000 
00000041 l       .debug_str	00000000 
0000009a l       .debug_str	00000000 
000000e8 l       .debug_str	00000000 
000000f1 l       .debug_str	00000000 
000000fc l       .debug_str	00000000 
00000100 l       .debug_str	00000000 
00000103 l       .debug_str	00000000 
00000114 l       .debug_str	00000000 
0000011d l       .debug_str	00000000 
00000128 l       .debug_str	00000000 
0000012f l       .debug_str	00000000 
0000013c l       .debug_str	00000000 
00000143 l       .debug_str	00000000 
0000014b l       .debug_str	00000000 
00000159 l       .debug_str	00000000 
00000162 l       .debug_str	00000000 
00000170 l       .debug_str	00000000 
00000180 l       .debug_str	00000000 
0000018d l       .debug_str	00000000 
000001c6 l       .debug_str	00000000 
000001ce l       .debug_str	00000000 
00000259 l       .debug_str	00000000 
00000265 l       .debug_str	00000000 
00000269 l       .debug_str	00000000 
000002f6 l       .debug_str	00000000 
00000380 l       .debug_str	00000000 
000003c7 l       .debug_str	00000000 
000003dc l       .debug_str	00000000 
000003e6 l       .debug_str	00000000 
000003ea l       .debug_str	00000000 
000003ec l       .debug_str	00000000 
000003ef l       .debug_str	00000000 
00000000 l    d  .text._ZN8cortex_m10peripheral3scb7cbp_new17h5408e98e56751646E	00000000 .text._ZN8cortex_m10peripheral3scb7cbp_new17h5408e98e56751646E
00000000 l    d  .text._ZN8cortex_m10peripheral3scb43_$LT$impl$u20$cortex_m..peripheral..SCB$GT$13set_sleepdeep28_$u7b$$u7b$closure$u7d$$u7d$17h44a2d3f35ce8234eE	00000000 .text._ZN8cortex_m10peripheral3scb43_$LT$impl$u20$cortex_m..peripheral..SCB$GT$13set_sleepdeep28_$u7b$$u7b$closure$u7d$$u7d$17h44a2d3f35ce8234eE
00000000 l    d  .text._ZN8cortex_m10peripheral3scb43_$LT$impl$u20$cortex_m..peripheral..SCB$GT$15clear_sleepdeep28_$u7b$$u7b$closure$u7d$$u7d$17hc8dc58beccaae229E	00000000 .text._ZN8cortex_m10peripheral3scb43_$LT$impl$u20$cortex_m..peripheral..SCB$GT$15clear_sleepdeep28_$u7b$$u7b$closure$u7d$$u7d$17hc8dc58beccaae229E
00000000 l    d  .text._ZN8cortex_m10peripheral3scb43_$LT$impl$u20$cortex_m..peripheral..SCB$GT$12system_reset28_$u7b$$u7b$closure$u7d$$u7d$17hc8e17af7179c4d1cE	00000000 .text._ZN8cortex_m10peripheral3scb43_$LT$impl$u20$cortex_m..peripheral..SCB$GT$12system_reset28_$u7b$$u7b$closure$u7d$$u7d$17hc8e17af7179c4d1cE
00000000 l    d  .text._ZN8cortex_m10peripheral3scb20system_handler_index17h01bf2abfc754a6a3E	00000000 .text._ZN8cortex_m10peripheral3scb20system_handler_index17h01bf2abfc754a6a3E
00000000 l    d  .debug_abbrev	00000000 .debug_abbrev
00000000 l    d  .debug_info	00000000 .debug_info
00000000 l    d  .debug_ranges	00000000 .debug_ranges
00000000 l    d  .debug_frame	00000000 .debug_frame
00000000 l    d  .debug_line	00000000 .debug_line
00000000 g     F .text._ZN8cortex_m10peripheral3scb20system_handler_index17h01bf2abfc754a6a3E	00000058 .hidden _ZN8cortex_m10peripheral3scb20system_handler_index17h01bf2abfc754a6a3E
00000000 g     F .text._ZN8cortex_m10peripheral3scb43_$LT$impl$u20$cortex_m..peripheral..SCB$GT$12system_reset28_$u7b$$u7b$closure$u7d$$u7d$17hc8e17af7179c4d1cE	00000014 .hidden _ZN8cortex_m10peripheral3scb43_$LT$impl$u20$cortex_m..peripheral..SCB$GT$12system_reset28_$u7b$$u7b$closure$u7d$$u7d$17hc8e17af7179c4d1cE
00000000 g     F .text._ZN8cortex_m10peripheral3scb43_$LT$impl$u20$cortex_m..peripheral..SCB$GT$13set_sleepdeep28_$u7b$$u7b$closure$u7d$$u7d$17h44a2d3f35ce8234eE	0000000c .hidden _ZN8cortex_m10peripheral3scb43_$LT$impl$u20$cortex_m..peripheral..SCB$GT$13set_sleepdeep28_$u7b$$u7b$closure$u7d$$u7d$17h44a2d3f35ce8234eE
00000000 g     F .text._ZN8cortex_m10peripheral3scb43_$LT$impl$u20$cortex_m..peripheral..SCB$GT$15clear_sleepdeep28_$u7b$$u7b$closure$u7d$$u7d$17hc8dc58beccaae229E	0000000c .hidden _ZN8cortex_m10peripheral3scb43_$LT$impl$u20$cortex_m..peripheral..SCB$GT$15clear_sleepdeep28_$u7b$$u7b$closure$u7d$$u7d$17hc8dc58beccaae229E
00000000 g     F .text._ZN8cortex_m10peripheral3scb7cbp_new17h5408e98e56751646E	00000004 _ZN8cortex_m10peripheral3scb7cbp_new17h5408e98e56751646E



Disassembly of section .text._ZN8cortex_m10peripheral3scb7cbp_new17h5408e98e56751646E:

00000000 <_ZN8cortex_m10peripheral3scb7cbp_new17h5408e98e56751646E>:
_ZN8cortex_m10peripheral3scb7cbp_new17h5408e98e56751646E():
/home/breetai/.cargo/registry/src/github.com-1ecc6299db9ec823/cortex-m-0.5.10/src/peripheral/scb.rs:194
#[cfg(not(armv6m))]
use self::scb_consts::*;

#[cfg(not(armv6m))]
unsafe fn cbp_new() -> CBP {
    core::mem::transmute(())
   0:	e7ff      	b.n	2 <_ZN8cortex_m10peripheral3scb7cbp_new17h5408e98e56751646E+0x2>
/home/breetai/.cargo/registry/src/github.com-1ecc6299db9ec823/cortex-m-0.5.10/src/peripheral/scb.rs:195
}
   2:	4770      	bx	lr

Disassembly of section .text._ZN8cortex_m10peripheral3scb43_$LT$impl$u20$cortex_m..peripheral..SCB$GT$13set_sleepdeep28_$u7b$$u7b$closure$u7d$$u7d$17h44a2d3f35ce8234eE:

00000000 <_ZN8cortex_m10peripheral3scb43_$LT$impl$u20$cortex_m..peripheral..SCB$GT$13set_sleepdeep28_$u7b$$u7b$closure$u7d$$u7d$17h44a2d3f35ce8234eE>:
_ZN8cortex_m10peripheral3scb43_$LT$impl$u20$cortex_m..peripheral..SCB$GT$13set_sleepdeep28_$u7b$$u7b$closure$u7d$$u7d$17h44a2d3f35ce8234eE():
/home/breetai/.cargo/registry/src/github.com-1ecc6299db9ec823/cortex-m-0.5.10/src/peripheral/scb.rs:479

impl SCB {
    /// Set the SLEEPDEEP bit in the SCR register
    pub fn set_sleepdeep(&mut self) {
        unsafe {
            self.scr.modify(|scr| scr | SCB_SCR_SLEEPDEEP);
   0:	b082      	sub	sp, #8
   2:	9001      	str	r0, [sp, #4]
   4:	f040 0004 	orr.w	r0, r0, #4
   8:	b002      	add	sp, #8
   a:	4770      	bx	lr

Disassembly of section .text._ZN8cortex_m10peripheral3scb43_$LT$impl$u20$cortex_m..peripheral..SCB$GT$15clear_sleepdeep28_$u7b$$u7b$closure$u7d$$u7d$17hc8dc58beccaae229E:

00000000 <_ZN8cortex_m10peripheral3scb43_$LT$impl$u20$cortex_m..peripheral..SCB$GT$15clear_sleepdeep28_$u7b$$u7b$closure$u7d$$u7d$17hc8dc58beccaae229E>:
_ZN8cortex_m10peripheral3scb43_$LT$impl$u20$cortex_m..peripheral..SCB$GT$15clear_sleepdeep28_$u7b$$u7b$closure$u7d$$u7d$17hc8dc58beccaae229E():
/home/breetai/.cargo/registry/src/github.com-1ecc6299db9ec823/cortex-m-0.5.10/src/peripheral/scb.rs:486
    }

    /// Clear the SLEEPDEEP bit in the SCR register
    pub fn clear_sleepdeep(&mut self) {
        unsafe {
            self.scr.modify(|scr| scr & !SCB_SCR_SLEEPDEEP);
   0:	b082      	sub	sp, #8
   2:	9001      	str	r0, [sp, #4]
   4:	f020 0004 	bic.w	r0, r0, #4
   8:	b002      	add	sp, #8
   a:	4770      	bx	lr

Disassembly of section .text._ZN8cortex_m10peripheral3scb43_$LT$impl$u20$cortex_m..peripheral..SCB$GT$12system_reset28_$u7b$$u7b$closure$u7d$$u7d$17hc8e17af7179c4d1cE:

00000000 <_ZN8cortex_m10peripheral3scb43_$LT$impl$u20$cortex_m..peripheral..SCB$GT$12system_reset28_$u7b$$u7b$closure$u7d$$u7d$17hc8e17af7179c4d1cE>:
_ZN8cortex_m10peripheral3scb43_$LT$impl$u20$cortex_m..peripheral..SCB$GT$12system_reset28_$u7b$$u7b$closure$u7d$$u7d$17hc8e17af7179c4d1cE():
/home/breetai/.cargo/registry/src/github.com-1ecc6299db9ec823/cortex-m-0.5.10/src/peripheral/scb.rs:501
    /// Initiate a system reset request to reset the MCU
    pub fn system_reset(&mut self) -> ! {
        ::asm::dsb();
        unsafe {
            self.aircr.modify(
                |r| {
   0:	b082      	sub	sp, #8
   2:	9001      	str	r0, [sp, #4]
/home/breetai/.cargo/registry/src/github.com-1ecc6299db9ec823/cortex-m-0.5.10/src/peripheral/scb.rs:503
                    SCB_AIRCR_VECTKEY | // otherwise the write is ignored
            r & SCB_AIRCR_PRIGROUP_MASK | // keep priority group unchanged
   4:	f400 60a0 	and.w	r0, r0, #1280	; 0x500
   8:	2104      	movs	r1, #4
   a:	f2c0 51fa 	movt	r1, #1530	; 0x5fa
/home/breetai/.cargo/registry/src/github.com-1ecc6299db9ec823/cortex-m-0.5.10/src/peripheral/scb.rs:502
                    SCB_AIRCR_VECTKEY | // otherwise the write is ignored
   e:	4308      	orrs	r0, r1
/home/breetai/.cargo/registry/src/github.com-1ecc6299db9ec823/cortex-m-0.5.10/src/peripheral/scb.rs:505
            SCB_AIRCR_SYSRESETREQ
                }, // set the bit
  10:	b002      	add	sp, #8
  12:	4770      	bx	lr

Disassembly of section .text._ZN8cortex_m10peripheral3scb20system_handler_index17h01bf2abfc754a6a3E:

00000000 <_ZN8cortex_m10peripheral3scb20system_handler_index17h01bf2abfc754a6a3E>:
_ZN8cortex_m10peripheral3scb20system_handler_index17h01bf2abfc754a6a3E():
/home/breetai/.cargo/registry/src/github.com-1ecc6299db9ec823/cortex-m-0.5.10/src/peripheral/scb.rs:565
            (*Self::ptr()).icsr.write(SCB_ICSR_PENDSTCLR);
        }
    }
}

fn system_handler_index(sh: &SystemHandler) -> u8 {
   0:	b083      	sub	sp, #12
   2:	9002      	str	r0, [sp, #8]
/home/breetai/.cargo/registry/src/github.com-1ecc6299db9ec823/cortex-m-0.5.10/src/peripheral/scb.rs:568
    match *sh {
        #[cfg(not(armv6m))]
        SystemHandler::MemoryManagement => 4,
   4:	7800      	ldrb	r0, [r0, #0]
   6:	9000      	str	r0, [sp, #0]
   8:	9900      	ldr	r1, [sp, #0]
   a:	e8df f001 	tbb	[pc, r1]
   e:	0d09      	.short	0x0d09
  10:	1d191511 	.word	0x1d191511
  14:	0004      	.short	0x0004
  16:	200f      	movs	r0, #15
/home/breetai/.cargo/registry/src/github.com-1ecc6299db9ec823/cortex-m-0.5.10/src/peripheral/scb.rs:579
        SystemHandler::SecureFault => 7,
        SystemHandler::SVCall => 11,
        #[cfg(not(armv6m))]
        SystemHandler::DebugMonitor => 12,
        SystemHandler::PendSV => 14,
        SystemHandler::SysTick => 15,
  18:	f88d 0007 	strb.w	r0, [sp, #7]
/home/breetai/.cargo/registry/src/github.com-1ecc6299db9ec823/cortex-m-0.5.10/src/peripheral/scb.rs:566
    match *sh {
  1c:	e018      	b.n	50 <_ZN8cortex_m10peripheral3scb20system_handler_index17h01bf2abfc754a6a3E+0x50>
  1e:	defe      	udf	#254	; 0xfe
  20:	2004      	movs	r0, #4
/home/breetai/.cargo/registry/src/github.com-1ecc6299db9ec823/cortex-m-0.5.10/src/peripheral/scb.rs:568
        SystemHandler::MemoryManagement => 4,
  22:	f88d 0007 	strb.w	r0, [sp, #7]
/home/breetai/.cargo/registry/src/github.com-1ecc6299db9ec823/cortex-m-0.5.10/src/peripheral/scb.rs:566
    match *sh {
  26:	e013      	b.n	50 <_ZN8cortex_m10peripheral3scb20system_handler_index17h01bf2abfc754a6a3E+0x50>
  28:	2005      	movs	r0, #5
/home/breetai/.cargo/registry/src/github.com-1ecc6299db9ec823/cortex-m-0.5.10/src/peripheral/scb.rs:570
        SystemHandler::BusFault => 5,
  2a:	f88d 0007 	strb.w	r0, [sp, #7]
/home/breetai/.cargo/registry/src/github.com-1ecc6299db9ec823/cortex-m-0.5.10/src/peripheral/scb.rs:566
    match *sh {
  2e:	e00f      	b.n	50 <_ZN8cortex_m10peripheral3scb20system_handler_index17h01bf2abfc754a6a3E+0x50>
  30:	2006      	movs	r0, #6
/home/breetai/.cargo/registry/src/github.com-1ecc6299db9ec823/cortex-m-0.5.10/src/peripheral/scb.rs:572
        SystemHandler::UsageFault => 6,
  32:	f88d 0007 	strb.w	r0, [sp, #7]
/home/breetai/.cargo/registry/src/github.com-1ecc6299db9ec823/cortex-m-0.5.10/src/peripheral/scb.rs:566
    match *sh {
  36:	e00b      	b.n	50 <_ZN8cortex_m10peripheral3scb20system_handler_index17h01bf2abfc754a6a3E+0x50>
  38:	200b      	movs	r0, #11
/home/breetai/.cargo/registry/src/github.com-1ecc6299db9ec823/cortex-m-0.5.10/src/peripheral/scb.rs:575
        SystemHandler::SVCall => 11,
  3a:	f88d 0007 	strb.w	r0, [sp, #7]
/home/breetai/.cargo/registry/src/github.com-1ecc6299db9ec823/cortex-m-0.5.10/src/peripheral/scb.rs:566
    match *sh {
  3e:	e007      	b.n	50 <_ZN8cortex_m10peripheral3scb20system_handler_index17h01bf2abfc754a6a3E+0x50>
  40:	200c      	movs	r0, #12
/home/breetai/.cargo/registry/src/github.com-1ecc6299db9ec823/cortex-m-0.5.10/src/peripheral/scb.rs:577
        SystemHandler::DebugMonitor => 12,
  42:	f88d 0007 	strb.w	r0, [sp, #7]
/home/breetai/.cargo/registry/src/github.com-1ecc6299db9ec823/cortex-m-0.5.10/src/peripheral/scb.rs:566
    match *sh {
  46:	e003      	b.n	50 <_ZN8cortex_m10peripheral3scb20system_handler_index17h01bf2abfc754a6a3E+0x50>
  48:	200e      	movs	r0, #14
/home/breetai/.cargo/registry/src/github.com-1ecc6299db9ec823/cortex-m-0.5.10/src/peripheral/scb.rs:578
        SystemHandler::PendSV => 14,
  4a:	f88d 0007 	strb.w	r0, [sp, #7]
/home/breetai/.cargo/registry/src/github.com-1ecc6299db9ec823/cortex-m-0.5.10/src/peripheral/scb.rs:566
    match *sh {
  4e:	e7ff      	b.n	50 <_ZN8cortex_m10peripheral3scb20system_handler_index17h01bf2abfc754a6a3E+0x50>
/home/breetai/.cargo/registry/src/github.com-1ecc6299db9ec823/cortex-m-0.5.10/src/peripheral/scb.rs:581
    }
}
  50:	f89d 0007 	ldrb.w	r0, [sp, #7]
  54:	b003      	add	sp, #12
  56:	4770      	bx	lr

cortex_m-28ff901b1fd66a59.cortex_m.c4wcnisn-cgu.6.rcgu.o:     file format elf32-littlearm

SYMBOL TABLE:
00000000 l    df *ABS*	00000000 cortex_m.c4wcnisn-cgu.6
00000000 l       .debug_str	00000000 
00000041 l       .debug_str	00000000 
0000009a l       .debug_str	00000000 
000000e8 l       .debug_str	00000000 
000000f1 l       .debug_str	00000000 
000000fc l       .debug_str	00000000 
00000100 l       .debug_str	00000000 
00000103 l       .debug_str	00000000 
00000112 l       .debug_str	00000000 
0000011c l       .debug_str	00000000 
0000012d l       .debug_str	00000000 
00000136 l       .debug_str	00000000 
00000141 l       .debug_str	00000000 
00000148 l       .debug_str	00000000 
00000155 l       .debug_str	00000000 
0000015c l       .debug_str	00000000 
00000164 l       .debug_str	00000000 
0000016e l       .debug_str	00000000 
0000017c l       .debug_str	00000000 
00000182 l       .debug_str	00000000 
00000188 l       .debug_str	00000000 
0000018d l       .debug_str	00000000 
00000192 l       .debug_str	00000000 
00000196 l       .debug_str	00000000 
00000198 l       .debug_str	00000000 
000001a8 l       .debug_str	00000000 
000001ba l       .debug_str	00000000 
000001f3 l       .debug_str	00000000 
000001fc l       .debug_str	00000000 
00000201 l       .debug_str	00000000 
0000021b l       .debug_str	00000000 
0000022d l       .debug_str	00000000 
00000236 l       .debug_str	00000000 
0000023e l       .debug_str	00000000 
00000242 l       .debug_str	00000000 
0000024b l       .debug_str	00000000 
00000260 l       .debug_str	00000000 
0000026a l       .debug_str	00000000 
0000026c l       .debug_str	00000000 
000002ab l       .debug_str	00000000 
000002c1 l       .debug_str	00000000 
000002dd l       .debug_str	00000000 
000002df l       .debug_str	00000000 
00000318 l       .debug_str	00000000 
00000321 l       .debug_str	00000000 
00000329 l       .debug_str	00000000 
00000330 l       .debug_str	00000000 
00000333 l       .debug_str	00000000 
0000033d l       .debug_str	00000000 
00000354 l       .debug_str	00000000 
00000358 l       .debug_str	00000000 
00000395 l       .debug_str	00000000 
0000039f l       .debug_str	00000000 
000003a3 l       .debug_str	00000000 
000003b1 l       .debug_str	00000000 
000003f0 l       .debug_str	00000000 
00000400 l       .debug_str	00000000 
0000043f l       .debug_str	00000000 
0000044c l       .debug_str	00000000 
0000048b l       .debug_str	00000000 
000004c9 l       .debug_str	00000000 
000004d4 l       .debug_str	00000000 
000004e3 l       .debug_str	00000000 
000004f4 l       .debug_str	00000000 
0000052d l       .debug_str	00000000 
00000535 l       .debug_str	00000000 
0000054e l       .debug_str	00000000 
00000555 l       .debug_str	00000000 
00000592 l       .debug_str	00000000 
0000059b l       .debug_str	00000000 
000005b6 l       .debug_str	00000000 
000005ef l       .debug_str	00000000 
000005f7 l       .debug_str	00000000 
00000635 l       .debug_str	00000000 
0000063f l       .debug_str	00000000 
00000643 l       .debug_str	00000000 
00000649 l       .debug_str	00000000 
0000064d l       .debug_str	00000000 
00000651 l       .debug_str	00000000 
00000655 l       .debug_str	00000000 
00000659 l       .debug_str	00000000 
0000065d l       .debug_str	00000000 
00000662 l       .debug_str	00000000 
00000667 l       .debug_str	00000000 
0000066c l       .debug_str	00000000 
00000678 l       .debug_str	00000000 
000006ec l       .debug_str	00000000 
0000075b l       .debug_str	00000000 
0000076b l       .debug_str	00000000 
000007d6 l       .debug_str	00000000 
000007e2 l       .debug_str	00000000 
000007ed l       .debug_str	00000000 
000007f1 l       .debug_str	00000000 
000007fb l       .debug_str	00000000 
00000800 l       .debug_str	00000000 
0000080b l       .debug_str	00000000 
00000878 l       .debug_str	00000000 
000008e7 l       .debug_str	00000000 
00000953 l       .debug_str	00000000 
000009bd l       .debug_str	00000000 
000009c8 l       .debug_str	00000000 
00000a39 l       .debug_str	00000000 
00000a4b l       .debug_str	00000000 
00000a50 l       .debug_str	00000000 
00000abc l       .debug_str	00000000 
00000ac9 l       .debug_str	00000000 
00000b35 l       .debug_str	00000000 
00000b42 l       .debug_str	00000000 
00000bae l       .debug_str	00000000 
00000bbb l       .debug_str	00000000 
00000bfb l       .debug_str	00000000 
00000c01 l       .debug_str	00000000 
00000c36 l       .debug_str	00000000 
00000c3a l       .debug_str	00000000 
00000c3f l       .debug_str	00000000 
00000c46 l       .debug_str	00000000 
00000c4d l       .debug_str	00000000 
00000c54 l       .debug_str	00000000 
00000c5d l       .debug_str	00000000 
00000c64 l       .debug_str	00000000 
00000c6c l       .debug_str	00000000 
00000c71 l       .debug_str	00000000 
00000c79 l       .debug_str	00000000 
00000c7b l       .debug_str	00000000 
00000c80 l       .debug_str	00000000 
00000c85 l       .debug_str	00000000 
00000c8e l       .debug_str	00000000 
00000c97 l       .debug_str	00000000 
00000ca2 l       .debug_str	00000000 
00000cb6 l       .debug_str	00000000 
00000cba l       .debug_str	00000000 
00000cc2 l       .debug_str	00000000 
00000cc6 l       .debug_str	00000000 
00000cd4 l       .debug_str	00000000 
00000d04 l       .debug_str	00000000 
00000d69 l       .debug_str	00000000 
00000d6f l       .debug_str	00000000 
00000d99 l       .debug_str	00000000 
00000dcf l       .debug_str	00000000 
00000dd4 l       .debug_str	00000000 
00000dd9 l       .debug_str	00000000 
00000de4 l       .debug_str	00000000 
00000de9 l       .debug_str	00000000 
00000df4 l       .debug_str	00000000 
00000df9 l       .debug_str	00000000 
00000e04 l       .debug_str	00000000 
00000e09 l       .debug_str	00000000 
00000e14 l       .debug_str	00000000 
00000e19 l       .debug_str	00000000 
00000e24 l       .debug_str	00000000 
00000e28 l       .debug_str	00000000 
00000e59 l       .debug_str	00000000 
00000ebf l       .debug_str	00000000 
00000eea l       .debug_str	00000000 
00000f1f l       .debug_str	00000000 
00000f24 l       .debug_str	00000000 
00000f29 l       .debug_str	00000000 
00000f2f l       .debug_str	00000000 
00000f33 l       .debug_str	00000000 
00000f37 l       .debug_str	00000000 
00000f3c l       .debug_str	00000000 
00000f42 l       .debug_str	00000000 
00000f47 l       .debug_str	00000000 
00000f4c l       .debug_str	00000000 
00000f51 l       .debug_str	00000000 
00000f57 l       .debug_str	00000000 
00000f5c l       .debug_str	00000000 
00000f61 l       .debug_str	00000000 
00000f6c l       .debug_str	00000000 
00000f72 l       .debug_str	00000000 
00000fa2 l       .debug_str	00000000 
00001007 l       .debug_str	00000000 
00001031 l       .debug_str	00000000 
00001050 l       .debug_str	00000000 
0000106f l       .debug_str	00000000 
0000107e l       .debug_str	00000000 
00001084 l       .debug_str	00000000 
00001089 l       .debug_str	00000000 
000010a4 l       .debug_str	00000000 
000010c0 l       .debug_str	00000000 
00000000 l     O .rodata..L__unnamed_1	00000010 .L__unnamed_1
00000000 l     O .rodata..L__unnamed_2	00000010 .L__unnamed_2
00000000 l     O .rodata..L__unnamed_3	00000010 .L__unnamed_3
00000000 l     O .rodata..L__unnamed_4	00000010 .L__unnamed_4
00000000 l     O .rodata..L__unnamed_5	00000010 .L__unnamed_5
00000000 l     O .rodata..L__unnamed_6	00000023 .L__unnamed_6
00000000 l     O .rodata..L__unnamed_7	00000010 .L__unnamed_7
00000000 l     O .rodata.str.0	00000021 str.0
00000000 l    d  .text._ZN8cortex_m10peripheral3dwt43_$LT$impl$u20$cortex_m..peripheral..DWT$GT$20enable_cycle_counter17h2188092115902c13E	00000000 .text._ZN8cortex_m10peripheral3dwt43_$LT$impl$u20$cortex_m..peripheral..DWT$GT$20enable_cycle_counter17h2188092115902c13E
00000000 l    d  .text._ZN8cortex_m10peripheral3dwt43_$LT$impl$u20$cortex_m..peripheral..DWT$GT$15get_cycle_count17hd35574b15fabb70fE	00000000 .text._ZN8cortex_m10peripheral3dwt43_$LT$impl$u20$cortex_m..peripheral..DWT$GT$15get_cycle_count17hd35574b15fabb70fE
00000000 l    d  .text._ZN8cortex_m10peripheral3scb43_$LT$impl$u20$cortex_m..peripheral..SCB$GT$11vect_active17hfd2291a008aa8dffE	00000000 .text._ZN8cortex_m10peripheral3scb43_$LT$impl$u20$cortex_m..peripheral..SCB$GT$11vect_active17hfd2291a008aa8dffE
00000000 l    d  .text._ZN8cortex_m10peripheral3scb43_$LT$impl$u20$cortex_m..peripheral..SCB$GT$13set_sleepdeep17ha6486211501441b3E	00000000 .text._ZN8cortex_m10peripheral3scb43_$LT$impl$u20$cortex_m..peripheral..SCB$GT$13set_sleepdeep17ha6486211501441b3E
00000000 l    d  .text._ZN8cortex_m10peripheral3scb43_$LT$impl$u20$cortex_m..peripheral..SCB$GT$15clear_sleepdeep17h6160a4f9b1b5b9bdE	00000000 .text._ZN8cortex_m10peripheral3scb43_$LT$impl$u20$cortex_m..peripheral..SCB$GT$15clear_sleepdeep17h6160a4f9b1b5b9bdE
00000000 l    d  .text._ZN8cortex_m10peripheral3scb43_$LT$impl$u20$cortex_m..peripheral..SCB$GT$12system_reset17h521b8849cb3e7d05E	00000000 .text._ZN8cortex_m10peripheral3scb43_$LT$impl$u20$cortex_m..peripheral..SCB$GT$12system_reset17h521b8849cb3e7d05E
00000000 l    d  .text._ZN8cortex_m10peripheral3scb43_$LT$impl$u20$cortex_m..peripheral..SCB$GT$10set_pendsv17h5b08bfa2b85a3220E	00000000 .text._ZN8cortex_m10peripheral3scb43_$LT$impl$u20$cortex_m..peripheral..SCB$GT$10set_pendsv17h5b08bfa2b85a3220E
00000000 l    d  .text._ZN8cortex_m10peripheral3scb43_$LT$impl$u20$cortex_m..peripheral..SCB$GT$17is_pendsv_pending17h1b0ea777b32aadf2E	00000000 .text._ZN8cortex_m10peripheral3scb43_$LT$impl$u20$cortex_m..peripheral..SCB$GT$17is_pendsv_pending17h1b0ea777b32aadf2E
00000000 l    d  .text._ZN8cortex_m10peripheral3scb43_$LT$impl$u20$cortex_m..peripheral..SCB$GT$12clear_pendsv17hecfeb76d625f02b0E	00000000 .text._ZN8cortex_m10peripheral3scb43_$LT$impl$u20$cortex_m..peripheral..SCB$GT$12clear_pendsv17hecfeb76d625f02b0E
00000000 l    d  .text._ZN8cortex_m10peripheral3scb43_$LT$impl$u20$cortex_m..peripheral..SCB$GT$12get_priority17ha0945760c8cee2a5E	00000000 .text._ZN8cortex_m10peripheral3scb43_$LT$impl$u20$cortex_m..peripheral..SCB$GT$12get_priority17ha0945760c8cee2a5E
00000000 l    d  .text._ZN8cortex_m10peripheral3scb43_$LT$impl$u20$cortex_m..peripheral..SCB$GT$12set_priority17hb64a9de015cf4432E	00000000 .text._ZN8cortex_m10peripheral3scb43_$LT$impl$u20$cortex_m..peripheral..SCB$GT$12set_priority17hb64a9de015cf4432E
00000000 l    d  .text._ZN8cortex_m10peripheral11Peripherals5steal17h66c97f343d4c4157E	00000000 .text._ZN8cortex_m10peripheral11Peripherals5steal17h66c97f343d4c4157E
00000000 l    d  .text._ZN8cortex_m10peripheral3DWT3ptr17he2aac87f5ce6e210E	00000000 .text._ZN8cortex_m10peripheral3DWT3ptr17he2aac87f5ce6e210E
00000000 l    d  .text._ZN69_$LT$cortex_m..peripheral..DWT$u20$as$u20$core..ops..deref..Deref$GT$5deref17hf6b9bafa3c81838fE	00000000 .text._ZN69_$LT$cortex_m..peripheral..DWT$u20$as$u20$core..ops..deref..Deref$GT$5deref17hf6b9bafa3c81838fE
00000000 l    d  .text._ZN8cortex_m10peripheral4NVIC3ptr17hde573348b27b69beE	00000000 .text._ZN8cortex_m10peripheral4NVIC3ptr17hde573348b27b69beE
00000000 l    d  .text._ZN70_$LT$cortex_m..peripheral..NVIC$u20$as$u20$core..ops..deref..Deref$GT$5deref17h8f5a16da566cd75bE	00000000 .text._ZN70_$LT$cortex_m..peripheral..NVIC$u20$as$u20$core..ops..deref..Deref$GT$5deref17h8f5a16da566cd75bE
00000000 l    d  .text._ZN8cortex_m10peripheral3SCB3ptr17h4ffc0570a43651bcE	00000000 .text._ZN8cortex_m10peripheral3SCB3ptr17h4ffc0570a43651bcE
00000000 l    d  .text._ZN69_$LT$cortex_m..peripheral..SCB$u20$as$u20$core..ops..deref..Deref$GT$5deref17hb0f176c56fa12d30E	00000000 .text._ZN69_$LT$cortex_m..peripheral..SCB$u20$as$u20$core..ops..deref..Deref$GT$5deref17hb0f176c56fa12d30E
00000000 l    d  .rodata..L__unnamed_8	00000000 .rodata..L__unnamed_8
00000000 l    d  .rodata..L__unnamed_9	00000000 .rodata..L__unnamed_9
00000000 l    d  .debug_abbrev	00000000 .debug_abbrev
00000000 l    d  .debug_info	00000000 .debug_info
00000000 l    d  .debug_ranges	00000000 .debug_ranges
00000000 l    d  .debug_frame	00000000 .debug_frame
00000000 l    d  .debug_line	00000000 .debug_line
00000000         *UND*	00000000 CORE_PERIPHERALS
00000000         *UND*	00000000 _ZN4core3ptr13read_volatile17h27f6a6d0639c3ab7E
00000000         *UND*	00000000 _ZN4core3ptr13read_volatile17h88c712f13a83cf6bE
00000000         *UND*	00000000 _ZN4core3ptr14write_volatile17h1358ef004bfcaf4dE
00000000         *UND*	00000000 _ZN4core3ptr14write_volatile17h38354b0c5c8da508E
00000000         *UND*	00000000 _ZN4core3ptr4read17hd27590e973e13d30E
00000000         *UND*	00000000 _ZN4core4cell19UnsafeCell$LT$T$GT$3get17h4125681ba8d4207aE
00000000         *UND*	00000000 _ZN4core4cell19UnsafeCell$LT$T$GT$3get17h4a78192b6ea74fbaE
00000000         *UND*	00000000 .hidden _ZN4core7convert3num65_$LT$impl$u20$core..convert..From$LT$u8$GT$$u20$for$u20$usize$GT$4from17ha930bdfe819cbbdcE
00000000         *UND*	00000000 _ZN4core9panicking18panic_bounds_check17hf99c3f5b69789624E
00000000         *UND*	00000000 _ZN4core9panicking5panic17h8a599e70764df7ecE
00000000 g     F .text._ZN69_$LT$cortex_m..peripheral..DWT$u20$as$u20$core..ops..deref..Deref$GT$5deref17hf6b9bafa3c81838fE	00000016 _ZN69_$LT$cortex_m..peripheral..DWT$u20$as$u20$core..ops..deref..Deref$GT$5deref17hf6b9bafa3c81838fE
00000000 g     F .text._ZN69_$LT$cortex_m..peripheral..SCB$u20$as$u20$core..ops..deref..Deref$GT$5deref17hb0f176c56fa12d30E	00000016 _ZN69_$LT$cortex_m..peripheral..SCB$u20$as$u20$core..ops..deref..Deref$GT$5deref17hb0f176c56fa12d30E
00000000 g     F .text._ZN70_$LT$cortex_m..peripheral..NVIC$u20$as$u20$core..ops..deref..Deref$GT$5deref17h8f5a16da566cd75bE	00000016 _ZN70_$LT$cortex_m..peripheral..NVIC$u20$as$u20$core..ops..deref..Deref$GT$5deref17h8f5a16da566cd75bE
00000000 g     F .text._ZN8cortex_m10peripheral11Peripherals5steal17h66c97f343d4c4157E	0000003e _ZN8cortex_m10peripheral11Peripherals5steal17h66c97f343d4c4157E
00000000 g     F .text._ZN8cortex_m10peripheral3DWT3ptr17he2aac87f5ce6e210E	0000000a _ZN8cortex_m10peripheral3DWT3ptr17he2aac87f5ce6e210E
00000000 g     F .text._ZN8cortex_m10peripheral3SCB3ptr17h4ffc0570a43651bcE	0000000a _ZN8cortex_m10peripheral3SCB3ptr17h4ffc0570a43651bcE
00000000 g     F .text._ZN8cortex_m10peripheral3dwt43_$LT$impl$u20$cortex_m..peripheral..DWT$GT$15get_cycle_count17hd35574b15fabb70fE	0000002a _ZN8cortex_m10peripheral3dwt43_$LT$impl$u20$cortex_m..peripheral..DWT$GT$15get_cycle_count17hd35574b15fabb70fE
00000000 g     F .text._ZN8cortex_m10peripheral3dwt43_$LT$impl$u20$cortex_m..peripheral..DWT$GT$20enable_cycle_counter17h2188092115902c13E	00000040 _ZN8cortex_m10peripheral3dwt43_$LT$impl$u20$cortex_m..peripheral..DWT$GT$20enable_cycle_counter17h2188092115902c13E
00000000         *UND*	00000000 .hidden _ZN8cortex_m10peripheral3dwt43_$LT$impl$u20$cortex_m..peripheral..DWT$GT$20enable_cycle_counter28_$u7b$$u7b$closure$u7d$$u7d$17h1cf31328dec855cdE
00000000         *UND*	00000000 .hidden _ZN8cortex_m10peripheral3scb20system_handler_index17h01bf2abfc754a6a3E
00000000 g     F .text._ZN8cortex_m10peripheral3scb43_$LT$impl$u20$cortex_m..peripheral..SCB$GT$10set_pendsv17h5b08bfa2b85a3220E	0000002e _ZN8cortex_m10peripheral3scb43_$LT$impl$u20$cortex_m..peripheral..SCB$GT$10set_pendsv17h5b08bfa2b85a3220E
00000000 g     F .text._ZN8cortex_m10peripheral3scb43_$LT$impl$u20$cortex_m..peripheral..SCB$GT$11vect_active17hfd2291a008aa8dffE	0000010e _ZN8cortex_m10peripheral3scb43_$LT$impl$u20$cortex_m..peripheral..SCB$GT$11vect_active17hfd2291a008aa8dffE
00000000 g     F .text._ZN8cortex_m10peripheral3scb43_$LT$impl$u20$cortex_m..peripheral..SCB$GT$12clear_pendsv17hecfeb76d625f02b0E	0000002e _ZN8cortex_m10peripheral3scb43_$LT$impl$u20$cortex_m..peripheral..SCB$GT$12clear_pendsv17hecfeb76d625f02b0E
00000000 g     F .text._ZN8cortex_m10peripheral3scb43_$LT$impl$u20$cortex_m..peripheral..SCB$GT$12get_priority17ha0945760c8cee2a5E	00000096 _ZN8cortex_m10peripheral3scb43_$LT$impl$u20$cortex_m..peripheral..SCB$GT$12get_priority17ha0945760c8cee2a5E
00000000 g     F .text._ZN8cortex_m10peripheral3scb43_$LT$impl$u20$cortex_m..peripheral..SCB$GT$12set_priority17hb64a9de015cf4432E	000000b0 _ZN8cortex_m10peripheral3scb43_$LT$impl$u20$cortex_m..peripheral..SCB$GT$12set_priority17hb64a9de015cf4432E
00000000 g     F .text._ZN8cortex_m10peripheral3scb43_$LT$impl$u20$cortex_m..peripheral..SCB$GT$12system_reset17h521b8849cb3e7d05E	0000005e _ZN8cortex_m10peripheral3scb43_$LT$impl$u20$cortex_m..peripheral..SCB$GT$12system_reset17h521b8849cb3e7d05E
00000000         *UND*	00000000 .hidden _ZN8cortex_m10peripheral3scb43_$LT$impl$u20$cortex_m..peripheral..SCB$GT$12system_reset28_$u7b$$u7b$closure$u7d$$u7d$17hc8e17af7179c4d1cE
00000000 g     F .text._ZN8cortex_m10peripheral3scb43_$LT$impl$u20$cortex_m..peripheral..SCB$GT$13set_sleepdeep17ha6486211501441b3E	00000048 _ZN8cortex_m10peripheral3scb43_$LT$impl$u20$cortex_m..peripheral..SCB$GT$13set_sleepdeep17ha6486211501441b3E
00000000         *UND*	00000000 .hidden _ZN8cortex_m10peripheral3scb43_$LT$impl$u20$cortex_m..peripheral..SCB$GT$13set_sleepdeep28_$u7b$$u7b$closure$u7d$$u7d$17h44a2d3f35ce8234eE
00000000 g     F .text._ZN8cortex_m10peripheral3scb43_$LT$impl$u20$cortex_m..peripheral..SCB$GT$15clear_sleepdeep17h6160a4f9b1b5b9bdE	00000048 _ZN8cortex_m10peripheral3scb43_$LT$impl$u20$cortex_m..peripheral..SCB$GT$15clear_sleepdeep17h6160a4f9b1b5b9bdE
00000000         *UND*	00000000 .hidden _ZN8cortex_m10peripheral3scb43_$LT$impl$u20$cortex_m..peripheral..SCB$GT$15clear_sleepdeep28_$u7b$$u7b$closure$u7d$$u7d$17hc8dc58beccaae229E
00000000 g     F .text._ZN8cortex_m10peripheral3scb43_$LT$impl$u20$cortex_m..peripheral..SCB$GT$17is_pendsv_pending17h1b0ea777b32aadf2E	0000002a _ZN8cortex_m10peripheral3scb43_$LT$impl$u20$cortex_m..peripheral..SCB$GT$17is_pendsv_pending17h1b0ea777b32aadf2E
00000000 g     F .text._ZN8cortex_m10peripheral4NVIC3ptr17hde573348b27b69beE	0000000a _ZN8cortex_m10peripheral4NVIC3ptr17hde573348b27b69beE
00000000         *UND*	00000000 .hidden _ZN8cortex_m3asm3dsb17h4d65209c1fd395baE
00000000         *UND*	00000000 .hidden _ZN8cortex_m3asm3nop17h628173fbcacc68f8E



Disassembly of section .text._ZN8cortex_m10peripheral3dwt43_$LT$impl$u20$cortex_m..peripheral..DWT$GT$20enable_cycle_counter17h2188092115902c13E:

00000000 <_ZN8cortex_m10peripheral3dwt43_$LT$impl$u20$cortex_m..peripheral..DWT$GT$20enable_cycle_counter17h2188092115902c13E>:
_ZN8cortex_m10peripheral3dwt43_$LT$impl$u20$cortex_m..peripheral..DWT$GT$20enable_cycle_counter17h2188092115902c13E():
/home/breetai/.cargo/registry/src/github.com-1ecc6299db9ec823/cortex-m-0.5.10/src/peripheral/dwt.rs:39

pub use cortex_m_0_6::peripheral::dwt::Comparator;

impl DWT {
    /// Enables the cycle counter
    pub fn enable_cycle_counter(&mut self) {
   0:	b580      	push	{r7, lr}
   2:	466f      	mov	r7, sp
   4:	b088      	sub	sp, #32
   6:	9002      	str	r0, [sp, #8]
/home/breetai/.cargo/registry/src/github.com-1ecc6299db9ec823/cortex-m-0.5.10/src/peripheral/dwt.rs:40
        unsafe { self.ctrl.modify(|r| r | 1) }
   8:	f7ff fffe 	bl	0 <_ZN8cortex_m10peripheral3dwt43_$LT$impl$u20$cortex_m..peripheral..DWT$GT$20enable_cycle_counter17h2188092115902c13E>
   c:	9001      	str	r0, [sp, #4]
   e:	e7ff      	b.n	10 <_ZN8cortex_m10peripheral3dwt43_$LT$impl$u20$cortex_m..peripheral..DWT$GT$20enable_cycle_counter17h2188092115902c13E+0x10>
  10:	9801      	ldr	r0, [sp, #4]
  12:	9004      	str	r0, [sp, #16]
  14:	9005      	str	r0, [sp, #20]
_ZN5vcell21VolatileCell$LT$T$GT$3get17hd97d3e0f8a433787E():
/home/breetai/.cargo/registry/src/github.com-1ecc6299db9ec823/vcell-0.1.2/src/lib.rs:32
    /// Returns a copy of the contained value
    #[inline(always)]
    pub fn get(&self) -> T
        where T: Copy
    {
        unsafe { ptr::read_volatile(self.value.get()) }
  16:	f7ff fffe 	bl	0 <_ZN4core4cell19UnsafeCell$LT$T$GT$3get17h4125681ba8d4207aE>
  1a:	f7ff fffe 	bl	0 <_ZN4core3ptr13read_volatile17h88c712f13a83cf6bE>
_ZN17volatile_register11RW$LT$T$GT$6modify17h5674a76ec171770dE():
/home/breetai/.cargo/registry/src/github.com-1ecc6299db9ec823/volatile-register-0.2.0/src/lib.rs:69
    /// NOTE: `unsafe` because writes to a register are side effectful
    #[inline(always)]
    pub unsafe fn modify<F>(&self, f: F)
        where F: FnOnce(T) -> T
    {
        self.register.set(f(self.register.get()));
  1e:	9003      	str	r0, [sp, #12]
  20:	9803      	ldr	r0, [sp, #12]
  22:	f7ff fffe 	bl	0 <_ZN8cortex_m10peripheral3dwt43_$LT$impl$u20$cortex_m..peripheral..DWT$GT$20enable_cycle_counter28_$u7b$$u7b$closure$u7d$$u7d$17h1cf31328dec855cdE>
  26:	9901      	ldr	r1, [sp, #4]
  28:	9106      	str	r1, [sp, #24]
  2a:	9007      	str	r0, [sp, #28]
_ZN5vcell21VolatileCell$LT$T$GT$3set17hf468d9efa257c0c3E():
/home/breetai/.cargo/registry/src/github.com-1ecc6299db9ec823/vcell-0.1.2/src/lib.rs:40
    /// Sets the contained value
    #[inline(always)]
    pub fn set(&self, value: T)
        where T: Copy
    {
        unsafe { ptr::write_volatile(self.value.get(), value) }
  2c:	9000      	str	r0, [sp, #0]
  2e:	4608      	mov	r0, r1
  30:	f7ff fffe 	bl	0 <_ZN4core4cell19UnsafeCell$LT$T$GT$3get17h4125681ba8d4207aE>
  34:	9900      	ldr	r1, [sp, #0]
  36:	f7ff fffe 	bl	0 <_ZN4core3ptr14write_volatile17h1358ef004bfcaf4dE>
_ZN8cortex_m10peripheral3dwt43_$LT$impl$u20$cortex_m..peripheral..DWT$GT$20enable_cycle_counter17h2188092115902c13E():
/home/breetai/.cargo/registry/src/github.com-1ecc6299db9ec823/cortex-m-0.5.10/src/peripheral/dwt.rs:40
  3a:	e7ff      	b.n	3c <_ZN8cortex_m10peripheral3dwt43_$LT$impl$u20$cortex_m..peripheral..DWT$GT$20enable_cycle_counter17h2188092115902c13E+0x3c>
/home/breetai/.cargo/registry/src/github.com-1ecc6299db9ec823/cortex-m-0.5.10/src/peripheral/dwt.rs:41
    }
  3c:	b008      	add	sp, #32
  3e:	bd80      	pop	{r7, pc}

Disassembly of section .text._ZN8cortex_m10peripheral3dwt43_$LT$impl$u20$cortex_m..peripheral..DWT$GT$15get_cycle_count17hd35574b15fabb70fE:

00000000 <_ZN8cortex_m10peripheral3dwt43_$LT$impl$u20$cortex_m..peripheral..DWT$GT$15get_cycle_count17hd35574b15fabb70fE>:
_ZN8cortex_m10peripheral3dwt43_$LT$impl$u20$cortex_m..peripheral..DWT$GT$15get_cycle_count17hd35574b15fabb70fE():
/home/breetai/.cargo/registry/src/github.com-1ecc6299db9ec823/cortex-m-0.5.10/src/peripheral/dwt.rs:44

    /// Returns the current clock cycle count
    pub fn get_cycle_count() -> u32 {
   0:	b580      	push	{r7, lr}
   2:	466f      	mov	r7, sp
   4:	b084      	sub	sp, #16
/home/breetai/.cargo/registry/src/github.com-1ecc6299db9ec823/cortex-m-0.5.10/src/peripheral/dwt.rs:46
        // NOTE(unsafe) atomic read with no side effects
        unsafe { (*Self::ptr()).cyccnt.read() }
   6:	f7ff fffe 	bl	0 <_ZN8cortex_m10peripheral3dwt43_$LT$impl$u20$cortex_m..peripheral..DWT$GT$15get_cycle_count17hd35574b15fabb70fE>
   a:	9001      	str	r0, [sp, #4]
   c:	e7ff      	b.n	e <_ZN8cortex_m10peripheral3dwt43_$LT$impl$u20$cortex_m..peripheral..DWT$GT$15get_cycle_count17hd35574b15fabb70fE+0xe>
   e:	9801      	ldr	r0, [sp, #4]
  10:	1d01      	adds	r1, r0, #4
  12:	9102      	str	r1, [sp, #8]
  14:	9103      	str	r1, [sp, #12]
_ZN5vcell21VolatileCell$LT$T$GT$3get17hd97d3e0f8a433787E():
/home/breetai/.cargo/registry/src/github.com-1ecc6299db9ec823/vcell-0.1.2/src/lib.rs:32
        unsafe { ptr::read_volatile(self.value.get()) }
  16:	4608      	mov	r0, r1
  18:	f7ff fffe 	bl	0 <_ZN4core4cell19UnsafeCell$LT$T$GT$3get17h4125681ba8d4207aE>
  1c:	f7ff fffe 	bl	0 <_ZN4core3ptr13read_volatile17h88c712f13a83cf6bE>
_ZN8cortex_m10peripheral3dwt43_$LT$impl$u20$cortex_m..peripheral..DWT$GT$15get_cycle_count17hd35574b15fabb70fE():
/home/breetai/.cargo/registry/src/github.com-1ecc6299db9ec823/cortex-m-0.5.10/src/peripheral/dwt.rs:46
  20:	9000      	str	r0, [sp, #0]
  22:	e7ff      	b.n	24 <_ZN8cortex_m10peripheral3dwt43_$LT$impl$u20$cortex_m..peripheral..DWT$GT$15get_cycle_count17hd35574b15fabb70fE+0x24>
/home/breetai/.cargo/registry/src/github.com-1ecc6299db9ec823/cortex-m-0.5.10/src/peripheral/dwt.rs:47
    }
  24:	9800      	ldr	r0, [sp, #0]
  26:	b004      	add	sp, #16
  28:	bd80      	pop	{r7, pc}

Disassembly of section .text._ZN8cortex_m10peripheral3scb43_$LT$impl$u20$cortex_m..peripheral..SCB$GT$11vect_active17hfd2291a008aa8dffE:

00000000 <_ZN8cortex_m10peripheral3scb43_$LT$impl$u20$cortex_m..peripheral..SCB$GT$11vect_active17hfd2291a008aa8dffE>:
_ZN8cortex_m10peripheral3scb43_$LT$impl$u20$cortex_m..peripheral..SCB$GT$11vect_active17hfd2291a008aa8dffE():
/home/breetai/.cargo/registry/src/github.com-1ecc6299db9ec823/cortex-m-0.5.10/src/peripheral/scb.rs:156
    }
}

impl SCB {
    /// Returns the active exception number
    pub fn vect_active() -> VectActive {
   0:	b580      	push	{r7, lr}
   2:	466f      	mov	r7, sp
   4:	b088      	sub	sp, #32
/home/breetai/.cargo/registry/src/github.com-1ecc6299db9ec823/cortex-m-0.5.10/src/peripheral/scb.rs:157
        let icsr = unsafe { ptr::read(&(*SCB::ptr()).icsr as *const _ as *const u32) };
   6:	f7ff fffe 	bl	0 <_ZN8cortex_m10peripheral3scb43_$LT$impl$u20$cortex_m..peripheral..SCB$GT$11vect_active17hfd2291a008aa8dffE>
   a:	9004      	str	r0, [sp, #16]
   c:	e7ff      	b.n	e <_ZN8cortex_m10peripheral3scb43_$LT$impl$u20$cortex_m..peripheral..SCB$GT$11vect_active17hfd2291a008aa8dffE+0xe>
   e:	9804      	ldr	r0, [sp, #16]
  10:	f7ff fffe 	bl	0 <_ZN4core3ptr4read17hd27590e973e13d30E>
  14:	4601      	mov	r1, r0
  16:	9006      	str	r0, [sp, #24]
  18:	9103      	str	r1, [sp, #12]
  1a:	e7ff      	b.n	1c <_ZN8cortex_m10peripheral3scb43_$LT$impl$u20$cortex_m..peripheral..SCB$GT$11vect_active17hfd2291a008aa8dffE+0x1c>
/home/breetai/.cargo/registry/src/github.com-1ecc6299db9ec823/cortex-m-0.5.10/src/peripheral/scb.rs:159

        match icsr as u8 {
  1c:	9803      	ldr	r0, [sp, #12]
  1e:	9903      	ldr	r1, [sp, #12]
  20:	b2ca      	uxtb	r2, r1
/home/breetai/.cargo/registry/src/github.com-1ecc6299db9ec823/cortex-m-0.5.10/src/peripheral/scb.rs:160
            0 => VectActive::ThreadMode,
  22:	4613      	mov	r3, r2
  24:	2a0f      	cmp	r2, #15
  26:	9002      	str	r0, [sp, #8]
  28:	9301      	str	r3, [sp, #4]
  2a:	d80a      	bhi.n	42 <_ZN8cortex_m10peripheral3scb43_$LT$impl$u20$cortex_m..peripheral..SCB$GT$11vect_active17hfd2291a008aa8dffE+0x42>
  2c:	9901      	ldr	r1, [sp, #4]
  2e:	e8df f001 	tbb	[pc, r1]
  32:	0813      	.short	0x0813
  34:	2b241e17 	.word	0x2b241e17
  38:	08080832 	.word	0x08080832
  3c:	08403908 	.word	0x08403908
  40:	4e47      	.short	0x4e47
/home/breetai/.cargo/registry/src/github.com-1ecc6299db9ec823/cortex-m-0.5.10/src/peripheral/scb.rs:176
            11 => VectActive::Exception(Exception::SVCall),
            #[cfg(not(armv6m))]
            12 => VectActive::Exception(Exception::DebugMonitor),
            14 => VectActive::Exception(Exception::PendSV),
            15 => VectActive::Exception(Exception::SysTick),
            irqn => VectActive::Interrupt { irqn: irqn - 16 },
  42:	9802      	ldr	r0, [sp, #8]
  44:	f807 0c01 	strb.w	r0, [r7, #-1]
  48:	b2c1      	uxtb	r1, r0
  4a:	3910      	subs	r1, #16
  4c:	b2ca      	uxtb	r2, r1
  4e:	460b      	mov	r3, r1
  50:	428a      	cmp	r2, r1
  52:	9300      	str	r3, [sp, #0]
  54:	d14f      	bne.n	f6 <_ZN8cortex_m10peripheral3scb43_$LT$impl$u20$cortex_m..peripheral..SCB$GT$11vect_active17hfd2291a008aa8dffE+0xf6>
  56:	e041      	b.n	dc <_ZN8cortex_m10peripheral3scb43_$LT$impl$u20$cortex_m..peripheral..SCB$GT$11vect_active17hfd2291a008aa8dffE+0xdc>
  58:	2000      	movs	r0, #0
/home/breetai/.cargo/registry/src/github.com-1ecc6299db9ec823/cortex-m-0.5.10/src/peripheral/scb.rs:160
            0 => VectActive::ThreadMode,
  5a:	f88d 0014 	strb.w	r0, [sp, #20]
/home/breetai/.cargo/registry/src/github.com-1ecc6299db9ec823/cortex-m-0.5.10/src/peripheral/scb.rs:159
        match icsr as u8 {
  5e:	e044      	b.n	ea <_ZN8cortex_m10peripheral3scb43_$LT$impl$u20$cortex_m..peripheral..SCB$GT$11vect_active17hfd2291a008aa8dffE+0xea>
  60:	2000      	movs	r0, #0
/home/breetai/.cargo/registry/src/github.com-1ecc6299db9ec823/cortex-m-0.5.10/src/peripheral/scb.rs:161
            2 => VectActive::Exception(Exception::NonMaskableInt),
  62:	f88d 0015 	strb.w	r0, [sp, #21]
  66:	2001      	movs	r0, #1
  68:	f88d 0014 	strb.w	r0, [sp, #20]
/home/breetai/.cargo/registry/src/github.com-1ecc6299db9ec823/cortex-m-0.5.10/src/peripheral/scb.rs:159
        match icsr as u8 {
  6c:	e03d      	b.n	ea <_ZN8cortex_m10peripheral3scb43_$LT$impl$u20$cortex_m..peripheral..SCB$GT$11vect_active17hfd2291a008aa8dffE+0xea>
  6e:	2001      	movs	r0, #1
/home/breetai/.cargo/registry/src/github.com-1ecc6299db9ec823/cortex-m-0.5.10/src/peripheral/scb.rs:162
            3 => VectActive::Exception(Exception::HardFault),
  70:	f88d 0015 	strb.w	r0, [sp, #21]
  74:	f88d 0014 	strb.w	r0, [sp, #20]
/home/breetai/.cargo/registry/src/github.com-1ecc6299db9ec823/cortex-m-0.5.10/src/peripheral/scb.rs:159
        match icsr as u8 {
  78:	e037      	b.n	ea <_ZN8cortex_m10peripheral3scb43_$LT$impl$u20$cortex_m..peripheral..SCB$GT$11vect_active17hfd2291a008aa8dffE+0xea>
  7a:	2002      	movs	r0, #2
/home/breetai/.cargo/registry/src/github.com-1ecc6299db9ec823/cortex-m-0.5.10/src/peripheral/scb.rs:164
            4 => VectActive::Exception(Exception::MemoryManagement),
  7c:	f88d 0015 	strb.w	r0, [sp, #21]
  80:	2001      	movs	r0, #1
  82:	f88d 0014 	strb.w	r0, [sp, #20]
/home/breetai/.cargo/registry/src/github.com-1ecc6299db9ec823/cortex-m-0.5.10/src/peripheral/scb.rs:159
        match icsr as u8 {
  86:	e030      	b.n	ea <_ZN8cortex_m10peripheral3scb43_$LT$impl$u20$cortex_m..peripheral..SCB$GT$11vect_active17hfd2291a008aa8dffE+0xea>
  88:	2003      	movs	r0, #3
/home/breetai/.cargo/registry/src/github.com-1ecc6299db9ec823/cortex-m-0.5.10/src/peripheral/scb.rs:166
            5 => VectActive::Exception(Exception::BusFault),
  8a:	f88d 0015 	strb.w	r0, [sp, #21]
  8e:	2001      	movs	r0, #1
  90:	f88d 0014 	strb.w	r0, [sp, #20]
/home/breetai/.cargo/registry/src/github.com-1ecc6299db9ec823/cortex-m-0.5.10/src/peripheral/scb.rs:159
        match icsr as u8 {
  94:	e029      	b.n	ea <_ZN8cortex_m10peripheral3scb43_$LT$impl$u20$cortex_m..peripheral..SCB$GT$11vect_active17hfd2291a008aa8dffE+0xea>
  96:	2004      	movs	r0, #4
/home/breetai/.cargo/registry/src/github.com-1ecc6299db9ec823/cortex-m-0.5.10/src/peripheral/scb.rs:168
            6 => VectActive::Exception(Exception::UsageFault),
  98:	f88d 0015 	strb.w	r0, [sp, #21]
  9c:	2001      	movs	r0, #1
  9e:	f88d 0014 	strb.w	r0, [sp, #20]
/home/breetai/.cargo/registry/src/github.com-1ecc6299db9ec823/cortex-m-0.5.10/src/peripheral/scb.rs:159
        match icsr as u8 {
  a2:	e022      	b.n	ea <_ZN8cortex_m10peripheral3scb43_$LT$impl$u20$cortex_m..peripheral..SCB$GT$11vect_active17hfd2291a008aa8dffE+0xea>
  a4:	2005      	movs	r0, #5
/home/breetai/.cargo/registry/src/github.com-1ecc6299db9ec823/cortex-m-0.5.10/src/peripheral/scb.rs:171
            11 => VectActive::Exception(Exception::SVCall),
  a6:	f88d 0015 	strb.w	r0, [sp, #21]
  aa:	2001      	movs	r0, #1
  ac:	f88d 0014 	strb.w	r0, [sp, #20]
/home/breetai/.cargo/registry/src/github.com-1ecc6299db9ec823/cortex-m-0.5.10/src/peripheral/scb.rs:159
        match icsr as u8 {
  b0:	e01b      	b.n	ea <_ZN8cortex_m10peripheral3scb43_$LT$impl$u20$cortex_m..peripheral..SCB$GT$11vect_active17hfd2291a008aa8dffE+0xea>
  b2:	2006      	movs	r0, #6
/home/breetai/.cargo/registry/src/github.com-1ecc6299db9ec823/cortex-m-0.5.10/src/peripheral/scb.rs:173
            12 => VectActive::Exception(Exception::DebugMonitor),
  b4:	f88d 0015 	strb.w	r0, [sp, #21]
  b8:	2001      	movs	r0, #1
  ba:	f88d 0014 	strb.w	r0, [sp, #20]
/home/breetai/.cargo/registry/src/github.com-1ecc6299db9ec823/cortex-m-0.5.10/src/peripheral/scb.rs:159
        match icsr as u8 {
  be:	e014      	b.n	ea <_ZN8cortex_m10peripheral3scb43_$LT$impl$u20$cortex_m..peripheral..SCB$GT$11vect_active17hfd2291a008aa8dffE+0xea>
  c0:	2007      	movs	r0, #7
/home/breetai/.cargo/registry/src/github.com-1ecc6299db9ec823/cortex-m-0.5.10/src/peripheral/scb.rs:174
            14 => VectActive::Exception(Exception::PendSV),
  c2:	f88d 0015 	strb.w	r0, [sp, #21]
  c6:	2001      	movs	r0, #1
  c8:	f88d 0014 	strb.w	r0, [sp, #20]
/home/breetai/.cargo/registry/src/github.com-1ecc6299db9ec823/cortex-m-0.5.10/src/peripheral/scb.rs:159
        match icsr as u8 {
  cc:	e00d      	b.n	ea <_ZN8cortex_m10peripheral3scb43_$LT$impl$u20$cortex_m..peripheral..SCB$GT$11vect_active17hfd2291a008aa8dffE+0xea>
  ce:	2008      	movs	r0, #8
/home/breetai/.cargo/registry/src/github.com-1ecc6299db9ec823/cortex-m-0.5.10/src/peripheral/scb.rs:175
            15 => VectActive::Exception(Exception::SysTick),
  d0:	f88d 0015 	strb.w	r0, [sp, #21]
  d4:	2001      	movs	r0, #1
  d6:	f88d 0014 	strb.w	r0, [sp, #20]
/home/breetai/.cargo/registry/src/github.com-1ecc6299db9ec823/cortex-m-0.5.10/src/peripheral/scb.rs:159
        match icsr as u8 {
  da:	e006      	b.n	ea <_ZN8cortex_m10peripheral3scb43_$LT$impl$u20$cortex_m..peripheral..SCB$GT$11vect_active17hfd2291a008aa8dffE+0xea>
/home/breetai/.cargo/registry/src/github.com-1ecc6299db9ec823/cortex-m-0.5.10/src/peripheral/scb.rs:176
            irqn => VectActive::Interrupt { irqn: irqn - 16 },
  dc:	9800      	ldr	r0, [sp, #0]
  de:	f88d 0015 	strb.w	r0, [sp, #21]
  e2:	2102      	movs	r1, #2
  e4:	f88d 1014 	strb.w	r1, [sp, #20]
/home/breetai/.cargo/registry/src/github.com-1ecc6299db9ec823/cortex-m-0.5.10/src/peripheral/scb.rs:159
        match icsr as u8 {
  e8:	e7ff      	b.n	ea <_ZN8cortex_m10peripheral3scb43_$LT$impl$u20$cortex_m..peripheral..SCB$GT$11vect_active17hfd2291a008aa8dffE+0xea>
/home/breetai/.cargo/registry/src/github.com-1ecc6299db9ec823/cortex-m-0.5.10/src/peripheral/scb.rs:178
        }
    }
  ea:	f89d 0014 	ldrb.w	r0, [sp, #20]
  ee:	f89d 1015 	ldrb.w	r1, [sp, #21]
  f2:	b008      	add	sp, #32
  f4:	bd80      	pop	{r7, pc}
/home/breetai/.cargo/registry/src/github.com-1ecc6299db9ec823/cortex-m-0.5.10/src/peripheral/scb.rs:176
            irqn => VectActive::Interrupt { irqn: irqn - 16 },
  f6:	f240 0000 	movw	r0, #0
  fa:	f2c0 0000 	movt	r0, #0
  fe:	f240 0200 	movw	r2, #0
 102:	f2c0 0200 	movt	r2, #0
 106:	2121      	movs	r1, #33	; 0x21
 108:	f7ff fffe 	bl	0 <_ZN4core9panicking5panic17h8a599e70764df7ecE>
 10c:	defe      	udf	#254	; 0xfe

Disassembly of section .text._ZN8cortex_m10peripheral3scb43_$LT$impl$u20$cortex_m..peripheral..SCB$GT$13set_sleepdeep17ha6486211501441b3E:

00000000 <_ZN8cortex_m10peripheral3scb43_$LT$impl$u20$cortex_m..peripheral..SCB$GT$13set_sleepdeep17ha6486211501441b3E>:
_ZN8cortex_m10peripheral3scb43_$LT$impl$u20$cortex_m..peripheral..SCB$GT$13set_sleepdeep17ha6486211501441b3E():
/home/breetai/.cargo/registry/src/github.com-1ecc6299db9ec823/cortex-m-0.5.10/src/peripheral/scb.rs:477

const SCB_SCR_SLEEPDEEP: u32 = 0x1 << 2;

impl SCB {
    /// Set the SLEEPDEEP bit in the SCR register
    pub fn set_sleepdeep(&mut self) {
   0:	b580      	push	{r7, lr}
   2:	466f      	mov	r7, sp
   4:	b08a      	sub	sp, #40	; 0x28
   6:	9004      	str	r0, [sp, #16]
/home/breetai/.cargo/registry/src/github.com-1ecc6299db9ec823/cortex-m-0.5.10/src/peripheral/scb.rs:479
        unsafe {
            self.scr.modify(|scr| scr | SCB_SCR_SLEEPDEEP);
   8:	f7ff fffe 	bl	0 <_ZN8cortex_m10peripheral3scb43_$LT$impl$u20$cortex_m..peripheral..SCB$GT$13set_sleepdeep17ha6486211501441b3E>
   c:	9003      	str	r0, [sp, #12]
   e:	e7ff      	b.n	10 <_ZN8cortex_m10peripheral3scb43_$LT$impl$u20$cortex_m..peripheral..SCB$GT$13set_sleepdeep17ha6486211501441b3E+0x10>
  10:	9803      	ldr	r0, [sp, #12]
  12:	f100 010c 	add.w	r1, r0, #12
  16:	9106      	str	r1, [sp, #24]
  18:	9107      	str	r1, [sp, #28]
_ZN5vcell21VolatileCell$LT$T$GT$3get17hd97d3e0f8a433787E():
/home/breetai/.cargo/registry/src/github.com-1ecc6299db9ec823/vcell-0.1.2/src/lib.rs:32
  1a:	4608      	mov	r0, r1
  1c:	9102      	str	r1, [sp, #8]
  1e:	f7ff fffe 	bl	0 <_ZN4core4cell19UnsafeCell$LT$T$GT$3get17h4125681ba8d4207aE>
  22:	f7ff fffe 	bl	0 <_ZN4core3ptr13read_volatile17h88c712f13a83cf6bE>
_ZN17volatile_register11RW$LT$T$GT$6modify17h716e4d813fa97b60E():
/home/breetai/.cargo/registry/src/github.com-1ecc6299db9ec823/volatile-register-0.2.0/src/lib.rs:69
  26:	9005      	str	r0, [sp, #20]
  28:	9805      	ldr	r0, [sp, #20]
  2a:	f7ff fffe 	bl	0 <_ZN8cortex_m10peripheral3scb43_$LT$impl$u20$cortex_m..peripheral..SCB$GT$13set_sleepdeep28_$u7b$$u7b$closure$u7d$$u7d$17h44a2d3f35ce8234eE>
  2e:	9902      	ldr	r1, [sp, #8]
  30:	9108      	str	r1, [sp, #32]
  32:	9009      	str	r0, [sp, #36]	; 0x24
_ZN5vcell21VolatileCell$LT$T$GT$3set17hf468d9efa257c0c3E():
/home/breetai/.cargo/registry/src/github.com-1ecc6299db9ec823/vcell-0.1.2/src/lib.rs:40
        unsafe { ptr::write_volatile(self.value.get(), value) }
  34:	9001      	str	r0, [sp, #4]
  36:	4608      	mov	r0, r1
  38:	f7ff fffe 	bl	0 <_ZN4core4cell19UnsafeCell$LT$T$GT$3get17h4125681ba8d4207aE>
  3c:	9901      	ldr	r1, [sp, #4]
  3e:	f7ff fffe 	bl	0 <_ZN4core3ptr14write_volatile17h1358ef004bfcaf4dE>
_ZN8cortex_m10peripheral3scb43_$LT$impl$u20$cortex_m..peripheral..SCB$GT$13set_sleepdeep17ha6486211501441b3E():
/home/breetai/.cargo/registry/src/github.com-1ecc6299db9ec823/cortex-m-0.5.10/src/peripheral/scb.rs:479
  42:	e7ff      	b.n	44 <_ZN8cortex_m10peripheral3scb43_$LT$impl$u20$cortex_m..peripheral..SCB$GT$13set_sleepdeep17ha6486211501441b3E+0x44>
/home/breetai/.cargo/registry/src/github.com-1ecc6299db9ec823/cortex-m-0.5.10/src/peripheral/scb.rs:481
        }
    }
  44:	b00a      	add	sp, #40	; 0x28
  46:	bd80      	pop	{r7, pc}

Disassembly of section .text._ZN8cortex_m10peripheral3scb43_$LT$impl$u20$cortex_m..peripheral..SCB$GT$15clear_sleepdeep17h6160a4f9b1b5b9bdE:

00000000 <_ZN8cortex_m10peripheral3scb43_$LT$impl$u20$cortex_m..peripheral..SCB$GT$15clear_sleepdeep17h6160a4f9b1b5b9bdE>:
_ZN8cortex_m10peripheral3scb43_$LT$impl$u20$cortex_m..peripheral..SCB$GT$15clear_sleepdeep17h6160a4f9b1b5b9bdE():
/home/breetai/.cargo/registry/src/github.com-1ecc6299db9ec823/cortex-m-0.5.10/src/peripheral/scb.rs:484

    /// Clear the SLEEPDEEP bit in the SCR register
    pub fn clear_sleepdeep(&mut self) {
   0:	b580      	push	{r7, lr}
   2:	466f      	mov	r7, sp
   4:	b08a      	sub	sp, #40	; 0x28
   6:	9004      	str	r0, [sp, #16]
/home/breetai/.cargo/registry/src/github.com-1ecc6299db9ec823/cortex-m-0.5.10/src/peripheral/scb.rs:486
        unsafe {
            self.scr.modify(|scr| scr & !SCB_SCR_SLEEPDEEP);
   8:	f7ff fffe 	bl	0 <_ZN8cortex_m10peripheral3scb43_$LT$impl$u20$cortex_m..peripheral..SCB$GT$15clear_sleepdeep17h6160a4f9b1b5b9bdE>
   c:	9003      	str	r0, [sp, #12]
   e:	e7ff      	b.n	10 <_ZN8cortex_m10peripheral3scb43_$LT$impl$u20$cortex_m..peripheral..SCB$GT$15clear_sleepdeep17h6160a4f9b1b5b9bdE+0x10>
  10:	9803      	ldr	r0, [sp, #12]
  12:	f100 010c 	add.w	r1, r0, #12
  16:	9106      	str	r1, [sp, #24]
  18:	9107      	str	r1, [sp, #28]
_ZN5vcell21VolatileCell$LT$T$GT$3get17hd97d3e0f8a433787E():
/home/breetai/.cargo/registry/src/github.com-1ecc6299db9ec823/vcell-0.1.2/src/lib.rs:32
        unsafe { ptr::read_volatile(self.value.get()) }
  1a:	4608      	mov	r0, r1
  1c:	9102      	str	r1, [sp, #8]
  1e:	f7ff fffe 	bl	0 <_ZN4core4cell19UnsafeCell$LT$T$GT$3get17h4125681ba8d4207aE>
  22:	f7ff fffe 	bl	0 <_ZN4core3ptr13read_volatile17h88c712f13a83cf6bE>
_ZN17volatile_register11RW$LT$T$GT$6modify17h289256e5b279bf46E():
/home/breetai/.cargo/registry/src/github.com-1ecc6299db9ec823/volatile-register-0.2.0/src/lib.rs:69
  26:	9005      	str	r0, [sp, #20]
  28:	9805      	ldr	r0, [sp, #20]
  2a:	f7ff fffe 	bl	0 <_ZN8cortex_m10peripheral3scb43_$LT$impl$u20$cortex_m..peripheral..SCB$GT$15clear_sleepdeep28_$u7b$$u7b$closure$u7d$$u7d$17hc8dc58beccaae229E>
  2e:	9902      	ldr	r1, [sp, #8]
  30:	9108      	str	r1, [sp, #32]
  32:	9009      	str	r0, [sp, #36]	; 0x24
_ZN5vcell21VolatileCell$LT$T$GT$3set17hf468d9efa257c0c3E():
/home/breetai/.cargo/registry/src/github.com-1ecc6299db9ec823/vcell-0.1.2/src/lib.rs:40
        unsafe { ptr::write_volatile(self.value.get(), value) }
  34:	9001      	str	r0, [sp, #4]
  36:	4608      	mov	r0, r1
  38:	f7ff fffe 	bl	0 <_ZN4core4cell19UnsafeCell$LT$T$GT$3get17h4125681ba8d4207aE>
  3c:	9901      	ldr	r1, [sp, #4]
  3e:	f7ff fffe 	bl	0 <_ZN4core3ptr14write_volatile17h1358ef004bfcaf4dE>
_ZN8cortex_m10peripheral3scb43_$LT$impl$u20$cortex_m..peripheral..SCB$GT$15clear_sleepdeep17h6160a4f9b1b5b9bdE():
/home/breetai/.cargo/registry/src/github.com-1ecc6299db9ec823/cortex-m-0.5.10/src/peripheral/scb.rs:486
  42:	e7ff      	b.n	44 <_ZN8cortex_m10peripheral3scb43_$LT$impl$u20$cortex_m..peripheral..SCB$GT$15clear_sleepdeep17h6160a4f9b1b5b9bdE+0x44>
/home/breetai/.cargo/registry/src/github.com-1ecc6299db9ec823/cortex-m-0.5.10/src/peripheral/scb.rs:488
        }
    }
  44:	b00a      	add	sp, #40	; 0x28
  46:	bd80      	pop	{r7, pc}

Disassembly of section .text._ZN8cortex_m10peripheral3scb43_$LT$impl$u20$cortex_m..peripheral..SCB$GT$12system_reset17h521b8849cb3e7d05E:

00000000 <_ZN8cortex_m10peripheral3scb43_$LT$impl$u20$cortex_m..peripheral..SCB$GT$12system_reset17h521b8849cb3e7d05E>:
_ZN8cortex_m10peripheral3scb43_$LT$impl$u20$cortex_m..peripheral..SCB$GT$12system_reset17h521b8849cb3e7d05E():
/home/breetai/.cargo/registry/src/github.com-1ecc6299db9ec823/cortex-m-0.5.10/src/peripheral/scb.rs:497
const SCB_AIRCR_PRIGROUP_MASK: u32 = 0x5 << 8;
const SCB_AIRCR_SYSRESETREQ: u32 = 1 << 2;

impl SCB {
    /// Initiate a system reset request to reset the MCU
    pub fn system_reset(&mut self) -> ! {
   0:	b580      	push	{r7, lr}
   2:	466f      	mov	r7, sp
   4:	b08a      	sub	sp, #40	; 0x28
   6:	9004      	str	r0, [sp, #16]
/home/breetai/.cargo/registry/src/github.com-1ecc6299db9ec823/cortex-m-0.5.10/src/peripheral/scb.rs:498
        ::asm::dsb();
   8:	9003      	str	r0, [sp, #12]
   a:	f7ff fffe 	bl	0 <_ZN8cortex_m3asm3dsb17h4d65209c1fd395baE>
   e:	e7ff      	b.n	10 <_ZN8cortex_m10peripheral3scb43_$LT$impl$u20$cortex_m..peripheral..SCB$GT$12system_reset17h521b8849cb3e7d05E+0x10>
/home/breetai/.cargo/registry/src/github.com-1ecc6299db9ec823/cortex-m-0.5.10/src/peripheral/scb.rs:500
        unsafe {
            self.aircr.modify(
  10:	9803      	ldr	r0, [sp, #12]
  12:	f7ff fffe 	bl	0 <_ZN8cortex_m10peripheral3scb43_$LT$impl$u20$cortex_m..peripheral..SCB$GT$12system_reset17h521b8849cb3e7d05E>
  16:	9002      	str	r0, [sp, #8]
  18:	e7ff      	b.n	1a <_ZN8cortex_m10peripheral3scb43_$LT$impl$u20$cortex_m..peripheral..SCB$GT$12system_reset17h521b8849cb3e7d05E+0x1a>
  1a:	9802      	ldr	r0, [sp, #8]
  1c:	f100 0108 	add.w	r1, r0, #8
  20:	9106      	str	r1, [sp, #24]
  22:	9107      	str	r1, [sp, #28]
_ZN5vcell21VolatileCell$LT$T$GT$3get17hd97d3e0f8a433787E():
/home/breetai/.cargo/registry/src/github.com-1ecc6299db9ec823/vcell-0.1.2/src/lib.rs:32
        unsafe { ptr::read_volatile(self.value.get()) }
  24:	4608      	mov	r0, r1
  26:	9101      	str	r1, [sp, #4]
  28:	f7ff fffe 	bl	0 <_ZN4core4cell19UnsafeCell$LT$T$GT$3get17h4125681ba8d4207aE>
  2c:	f7ff fffe 	bl	0 <_ZN4core3ptr13read_volatile17h88c712f13a83cf6bE>
_ZN17volatile_register11RW$LT$T$GT$6modify17h2325cfe0f9bf4218E():
/home/breetai/.cargo/registry/src/github.com-1ecc6299db9ec823/volatile-register-0.2.0/src/lib.rs:69
  30:	9005      	str	r0, [sp, #20]
  32:	9805      	ldr	r0, [sp, #20]
  34:	f7ff fffe 	bl	0 <_ZN8cortex_m10peripheral3scb43_$LT$impl$u20$cortex_m..peripheral..SCB$GT$12system_reset28_$u7b$$u7b$closure$u7d$$u7d$17hc8e17af7179c4d1cE>
  38:	9901      	ldr	r1, [sp, #4]
  3a:	9108      	str	r1, [sp, #32]
  3c:	9009      	str	r0, [sp, #36]	; 0x24
_ZN5vcell21VolatileCell$LT$T$GT$3set17hf468d9efa257c0c3E():
/home/breetai/.cargo/registry/src/github.com-1ecc6299db9ec823/vcell-0.1.2/src/lib.rs:40
        unsafe { ptr::write_volatile(self.value.get(), value) }
  3e:	9000      	str	r0, [sp, #0]
  40:	4608      	mov	r0, r1
  42:	f7ff fffe 	bl	0 <_ZN4core4cell19UnsafeCell$LT$T$GT$3get17h4125681ba8d4207aE>
  46:	9900      	ldr	r1, [sp, #0]
  48:	f7ff fffe 	bl	0 <_ZN4core3ptr14write_volatile17h1358ef004bfcaf4dE>
_ZN8cortex_m10peripheral3scb43_$LT$impl$u20$cortex_m..peripheral..SCB$GT$12system_reset17h521b8849cb3e7d05E():
/home/breetai/.cargo/registry/src/github.com-1ecc6299db9ec823/cortex-m-0.5.10/src/peripheral/scb.rs:500
  4c:	e7ff      	b.n	2 <_ZN8cortex_m3asm3dsb17h4d65209c1fd395baE+0x2>
/home/breetai/.cargo/registry/src/github.com-1ecc6299db9ec823/cortex-m-0.5.10/src/peripheral/scb.rs:508
            r & SCB_AIRCR_PRIGROUP_MASK | // keep priority group unchanged
            SCB_AIRCR_SYSRESETREQ
                }, // set the bit
            )
        };
        ::asm::dsb();
  4e:	f7ff fffe 	bl	0 <_ZN8cortex_m3asm3dsb17h4d65209c1fd395baE>
  52:	e7ff      	b.n	54 <_ZN8cortex_m10peripheral3scb43_$LT$impl$u20$cortex_m..peripheral..SCB$GT$12system_reset17h521b8849cb3e7d05E+0x54>
/home/breetai/.cargo/registry/src/github.com-1ecc6299db9ec823/cortex-m-0.5.10/src/peripheral/scb.rs:509
        loop {
  54:	e7ff      	b.n	56 <_ZN8cortex_m10peripheral3scb43_$LT$impl$u20$cortex_m..peripheral..SCB$GT$12system_reset17h521b8849cb3e7d05E+0x56>
/home/breetai/.cargo/registry/src/github.com-1ecc6299db9ec823/cortex-m-0.5.10/src/peripheral/scb.rs:511
            // wait for the reset
            ::asm::nop(); // avoid rust-lang/rust#28728
  56:	f7ff fffe 	bl	0 <_ZN8cortex_m3asm3nop17h628173fbcacc68f8E>
  5a:	e7ff      	b.n	5c <_ZN8cortex_m10peripheral3scb43_$LT$impl$u20$cortex_m..peripheral..SCB$GT$12system_reset17h521b8849cb3e7d05E+0x5c>
/home/breetai/.cargo/registry/src/github.com-1ecc6299db9ec823/cortex-m-0.5.10/src/peripheral/scb.rs:509
        loop {
  5c:	e7fb      	b.n	56 <_ZN8cortex_m10peripheral3scb43_$LT$impl$u20$cortex_m..peripheral..SCB$GT$12system_reset17h521b8849cb3e7d05E+0x56>

Disassembly of section .text._ZN8cortex_m10peripheral3scb43_$LT$impl$u20$cortex_m..peripheral..SCB$GT$10set_pendsv17h5b08bfa2b85a3220E:

00000000 <_ZN8cortex_m10peripheral3scb43_$LT$impl$u20$cortex_m..peripheral..SCB$GT$10set_pendsv17h5b08bfa2b85a3220E>:
_ZN8cortex_m10peripheral3scb43_$LT$impl$u20$cortex_m..peripheral..SCB$GT$10set_pendsv17h5b08bfa2b85a3220E():
/home/breetai/.cargo/registry/src/github.com-1ecc6299db9ec823/cortex-m-0.5.10/src/peripheral/scb.rs:524
const SCB_ICSR_PENDSTSET: u32 = 1 << 26;
const SCB_ICSR_PENDSTCLR: u32 = 1 << 25;

impl SCB {
    /// Set the PENDSVSET bit in the ICSR register which will pend the PendSV interrupt
    pub fn set_pendsv() {
   0:	b580      	push	{r7, lr}
   2:	466f      	mov	r7, sp
   4:	b086      	sub	sp, #24
/home/breetai/.cargo/registry/src/github.com-1ecc6299db9ec823/cortex-m-0.5.10/src/peripheral/scb.rs:526
        unsafe {
            (*Self::ptr()).icsr.write(SCB_ICSR_PENDSVSET);
   6:	f7ff fffe 	bl	0 <_ZN8cortex_m10peripheral3scb43_$LT$impl$u20$cortex_m..peripheral..SCB$GT$10set_pendsv17h5b08bfa2b85a3220E>
   a:	9001      	str	r0, [sp, #4]
   c:	e7ff      	b.n	e <_ZN8cortex_m10peripheral3scb43_$LT$impl$u20$cortex_m..peripheral..SCB$GT$10set_pendsv17h5b08bfa2b85a3220E+0xe>
   e:	9801      	ldr	r0, [sp, #4]
  10:	9002      	str	r0, [sp, #8]
  12:	f04f 5180 	mov.w	r1, #268435456	; 0x10000000
  16:	9103      	str	r1, [sp, #12]
  18:	9004      	str	r0, [sp, #16]
  1a:	9105      	str	r1, [sp, #20]
_ZN5vcell21VolatileCell$LT$T$GT$3set17hf468d9efa257c0c3E():
/home/breetai/.cargo/registry/src/github.com-1ecc6299db9ec823/vcell-0.1.2/src/lib.rs:40
  1c:	9100      	str	r1, [sp, #0]
  1e:	f7ff fffe 	bl	0 <_ZN4core4cell19UnsafeCell$LT$T$GT$3get17h4125681ba8d4207aE>
  22:	9900      	ldr	r1, [sp, #0]
  24:	f7ff fffe 	bl	0 <_ZN4core3ptr14write_volatile17h1358ef004bfcaf4dE>
_ZN8cortex_m10peripheral3scb43_$LT$impl$u20$cortex_m..peripheral..SCB$GT$10set_pendsv17h5b08bfa2b85a3220E():
/home/breetai/.cargo/registry/src/github.com-1ecc6299db9ec823/cortex-m-0.5.10/src/peripheral/scb.rs:526
  28:	e7ff      	b.n	2a <_ZN8cortex_m10peripheral3scb43_$LT$impl$u20$cortex_m..peripheral..SCB$GT$10set_pendsv17h5b08bfa2b85a3220E+0x2a>
/home/breetai/.cargo/registry/src/github.com-1ecc6299db9ec823/cortex-m-0.5.10/src/peripheral/scb.rs:528
        }
    }
  2a:	b006      	add	sp, #24
  2c:	bd80      	pop	{r7, pc}

Disassembly of section .text._ZN8cortex_m10peripheral3scb43_$LT$impl$u20$cortex_m..peripheral..SCB$GT$17is_pendsv_pending17h1b0ea777b32aadf2E:

00000000 <_ZN8cortex_m10peripheral3scb43_$LT$impl$u20$cortex_m..peripheral..SCB$GT$17is_pendsv_pending17h1b0ea777b32aadf2E>:
_ZN8cortex_m10peripheral3scb43_$LT$impl$u20$cortex_m..peripheral..SCB$GT$17is_pendsv_pending17h1b0ea777b32aadf2E():
/home/breetai/.cargo/registry/src/github.com-1ecc6299db9ec823/cortex-m-0.5.10/src/peripheral/scb.rs:531

    /// Check if PENDSVSET bit in the ICSR register is set meaning PendSV interrupt is pending
    pub fn is_pendsv_pending() -> bool {
   0:	b580      	push	{r7, lr}
   2:	466f      	mov	r7, sp
   4:	b084      	sub	sp, #16
/home/breetai/.cargo/registry/src/github.com-1ecc6299db9ec823/cortex-m-0.5.10/src/peripheral/scb.rs:532
        unsafe { (*Self::ptr()).icsr.read() & SCB_ICSR_PENDSVSET == SCB_ICSR_PENDSVSET }
   6:	f7ff fffe 	bl	0 <_ZN8cortex_m10peripheral3scb43_$LT$impl$u20$cortex_m..peripheral..SCB$GT$17is_pendsv_pending17h1b0ea777b32aadf2E>
   a:	9001      	str	r0, [sp, #4]
   c:	e7ff      	b.n	e <_ZN8cortex_m10peripheral3scb43_$LT$impl$u20$cortex_m..peripheral..SCB$GT$17is_pendsv_pending17h1b0ea777b32aadf2E+0xe>
   e:	9801      	ldr	r0, [sp, #4]
  10:	9002      	str	r0, [sp, #8]
  12:	9003      	str	r0, [sp, #12]
_ZN5vcell21VolatileCell$LT$T$GT$3get17hd97d3e0f8a433787E():
/home/breetai/.cargo/registry/src/github.com-1ecc6299db9ec823/vcell-0.1.2/src/lib.rs:32
        unsafe { ptr::read_volatile(self.value.get()) }
  14:	f7ff fffe 	bl	0 <_ZN4core4cell19UnsafeCell$LT$T$GT$3get17h4125681ba8d4207aE>
  18:	f7ff fffe 	bl	0 <_ZN4core3ptr13read_volatile17h88c712f13a83cf6bE>
_ZN8cortex_m10peripheral3scb43_$LT$impl$u20$cortex_m..peripheral..SCB$GT$17is_pendsv_pending17h1b0ea777b32aadf2E():
/home/breetai/.cargo/registry/src/github.com-1ecc6299db9ec823/cortex-m-0.5.10/src/peripheral/scb.rs:532
  1c:	9000      	str	r0, [sp, #0]
  1e:	e7ff      	b.n	20 <_ZN8cortex_m10peripheral3scb43_$LT$impl$u20$cortex_m..peripheral..SCB$GT$17is_pendsv_pending17h1b0ea777b32aadf2E+0x20>
  20:	9800      	ldr	r0, [sp, #0]
  22:	f3c0 7000 	ubfx	r0, r0, #28, #1
/home/breetai/.cargo/registry/src/github.com-1ecc6299db9ec823/cortex-m-0.5.10/src/peripheral/scb.rs:533
    }
  26:	b004      	add	sp, #16
  28:	bd80      	pop	{r7, pc}

Disassembly of section .text._ZN8cortex_m10peripheral3scb43_$LT$impl$u20$cortex_m..peripheral..SCB$GT$12clear_pendsv17hecfeb76d625f02b0E:

00000000 <_ZN8cortex_m10peripheral3scb43_$LT$impl$u20$cortex_m..peripheral..SCB$GT$12clear_pendsv17hecfeb76d625f02b0E>:
_ZN8cortex_m10peripheral3scb43_$LT$impl$u20$cortex_m..peripheral..SCB$GT$12clear_pendsv17hecfeb76d625f02b0E():
/home/breetai/.cargo/registry/src/github.com-1ecc6299db9ec823/cortex-m-0.5.10/src/peripheral/scb.rs:536

    /// Set the PENDSVCLR bit in the ICSR register which will clear a pending PendSV interrupt
    pub fn clear_pendsv() {
   0:	b580      	push	{r7, lr}
   2:	466f      	mov	r7, sp
   4:	b086      	sub	sp, #24
/home/breetai/.cargo/registry/src/github.com-1ecc6299db9ec823/cortex-m-0.5.10/src/peripheral/scb.rs:538
        unsafe {
            (*Self::ptr()).icsr.write(SCB_ICSR_PENDSVCLR);
   6:	f7ff fffe 	bl	0 <_ZN8cortex_m10peripheral3scb43_$LT$impl$u20$cortex_m..peripheral..SCB$GT$12clear_pendsv17hecfeb76d625f02b0E>
   a:	9001      	str	r0, [sp, #4]
   c:	e7ff      	b.n	e <_ZN8cortex_m10peripheral3scb43_$LT$impl$u20$cortex_m..peripheral..SCB$GT$12clear_pendsv17hecfeb76d625f02b0E+0xe>
   e:	9801      	ldr	r0, [sp, #4]
  10:	9002      	str	r0, [sp, #8]
  12:	f04f 6100 	mov.w	r1, #134217728	; 0x8000000
  16:	9103      	str	r1, [sp, #12]
  18:	9004      	str	r0, [sp, #16]
  1a:	9105      	str	r1, [sp, #20]
_ZN5vcell21VolatileCell$LT$T$GT$3set17hf468d9efa257c0c3E():
/home/breetai/.cargo/registry/src/github.com-1ecc6299db9ec823/vcell-0.1.2/src/lib.rs:40
        unsafe { ptr::write_volatile(self.value.get(), value) }
  1c:	9100      	str	r1, [sp, #0]
  1e:	f7ff fffe 	bl	0 <_ZN4core4cell19UnsafeCell$LT$T$GT$3get17h4125681ba8d4207aE>
  22:	9900      	ldr	r1, [sp, #0]
  24:	f7ff fffe 	bl	0 <_ZN4core3ptr14write_volatile17h1358ef004bfcaf4dE>
_ZN8cortex_m10peripheral3scb43_$LT$impl$u20$cortex_m..peripheral..SCB$GT$12clear_pendsv17hecfeb76d625f02b0E():
/home/breetai/.cargo/registry/src/github.com-1ecc6299db9ec823/cortex-m-0.5.10/src/peripheral/scb.rs:538
  28:	e7ff      	b.n	2a <_ZN8cortex_m10peripheral3scb43_$LT$impl$u20$cortex_m..peripheral..SCB$GT$12clear_pendsv17hecfeb76d625f02b0E+0x2a>
/home/breetai/.cargo/registry/src/github.com-1ecc6299db9ec823/cortex-m-0.5.10/src/peripheral/scb.rs:540
        }
    }
  2a:	b006      	add	sp, #24
  2c:	bd80      	pop	{r7, pc}

Disassembly of section .text._ZN8cortex_m10peripheral3scb43_$LT$impl$u20$cortex_m..peripheral..SCB$GT$12get_priority17ha0945760c8cee2a5E:

00000000 <_ZN8cortex_m10peripheral3scb43_$LT$impl$u20$cortex_m..peripheral..SCB$GT$12get_priority17ha0945760c8cee2a5E>:
_ZN8cortex_m10peripheral3scb43_$LT$impl$u20$cortex_m..peripheral..SCB$GT$12get_priority17ha0945760c8cee2a5E():
/home/breetai/.cargo/registry/src/github.com-1ecc6299db9ec823/cortex-m-0.5.10/src/peripheral/scb.rs:588
impl SCB {
    /// Returns the hardware priority of `system_handler`
    ///
    /// *NOTE*: Hardware priority does not exactly match logical priority levels. See
    /// [`NVIC.get_priority`](struct.NVIC.html#method.get_priority) for more details.
    pub fn get_priority(system_handler: SystemHandler) -> u8 {
   0:	b580      	push	{r7, lr}
   2:	466f      	mov	r7, sp
   4:	b08a      	sub	sp, #40	; 0x28
   6:	4601      	mov	r1, r0
   8:	f807 0c0a 	strb.w	r0, [r7, #-10]
   c:	f1a7 000a 	sub.w	r0, r7, #10
/home/breetai/.cargo/registry/src/github.com-1ecc6299db9ec823/cortex-m-0.5.10/src/peripheral/scb.rs:589
        let index = system_handler_index(&system_handler);
  10:	9106      	str	r1, [sp, #24]
  12:	f7ff fffe 	bl	0 <_ZN8cortex_m10peripheral3scb20system_handler_index17h01bf2abfc754a6a3E>
  16:	4601      	mov	r1, r0
  18:	f807 0c09 	strb.w	r0, [r7, #-9]
  1c:	9105      	str	r1, [sp, #20]
  1e:	e7ff      	b.n	20 <_ZN8cortex_m10peripheral3scb43_$LT$impl$u20$cortex_m..peripheral..SCB$GT$12get_priority17ha0945760c8cee2a5E+0x20>
/home/breetai/.cargo/registry/src/github.com-1ecc6299db9ec823/cortex-m-0.5.10/src/peripheral/scb.rs:594

        #[cfg(not(armv6m))]
        {
            // NOTE(unsafe) atomic read with no side effects
            unsafe { (*Self::ptr()).shpr[usize::from(index - 4)].read() }
  20:	f7ff fffe 	bl	0 <_ZN8cortex_m10peripheral3scb43_$LT$impl$u20$cortex_m..peripheral..SCB$GT$12get_priority17ha0945760c8cee2a5E>
  24:	9004      	str	r0, [sp, #16]
  26:	e7ff      	b.n	28 <_ZN8cortex_m10peripheral3scb43_$LT$impl$u20$cortex_m..peripheral..SCB$GT$12get_priority17ha0945760c8cee2a5E+0x28>
  28:	9805      	ldr	r0, [sp, #20]
  2a:	b2c1      	uxtb	r1, r0
  2c:	3904      	subs	r1, #4
  2e:	b2ca      	uxtb	r2, r1
  30:	460b      	mov	r3, r1
  32:	428a      	cmp	r2, r1
  34:	9303      	str	r3, [sp, #12]
  36:	d119      	bne.n	6c <_ZN8cortex_m10peripheral3scb43_$LT$impl$u20$cortex_m..peripheral..SCB$GT$12get_priority17ha0945760c8cee2a5E+0x6c>
  38:	e7ff      	b.n	3a <_ZN8cortex_m10peripheral3scb43_$LT$impl$u20$cortex_m..peripheral..SCB$GT$12get_priority17ha0945760c8cee2a5E+0x3a>
  3a:	9803      	ldr	r0, [sp, #12]
  3c:	f7ff fffe 	bl	0 <_ZN4core7convert3num65_$LT$impl$u20$core..convert..From$LT$u8$GT$$u20$for$u20$usize$GT$4from17ha930bdfe819cbbdcE>
  40:	9002      	str	r0, [sp, #8]
  42:	e7ff      	b.n	44 <_ZN8cortex_m10peripheral3scb43_$LT$impl$u20$cortex_m..peripheral..SCB$GT$12get_priority17ha0945760c8cee2a5E+0x44>
  44:	9802      	ldr	r0, [sp, #8]
  46:	280b      	cmp	r0, #11
  48:	d81c      	bhi.n	84 <_ZN8cortex_m10peripheral3scb43_$LT$impl$u20$cortex_m..peripheral..SCB$GT$12get_priority17ha0945760c8cee2a5E+0x84>
  4a:	e7ff      	b.n	4c <_ZN8cortex_m10peripheral3scb43_$LT$impl$u20$cortex_m..peripheral..SCB$GT$12get_priority17ha0945760c8cee2a5E+0x4c>
  4c:	9804      	ldr	r0, [sp, #16]
  4e:	9902      	ldr	r1, [sp, #8]
  50:	1842      	adds	r2, r0, r1
  52:	3214      	adds	r2, #20
  54:	9208      	str	r2, [sp, #32]
  56:	9209      	str	r2, [sp, #36]	; 0x24
_ZN5vcell21VolatileCell$LT$T$GT$3get17hc7b867d9c0823059E():
/home/breetai/.cargo/registry/src/github.com-1ecc6299db9ec823/vcell-0.1.2/src/lib.rs:32
        unsafe { ptr::read_volatile(self.value.get()) }
  58:	4610      	mov	r0, r2
  5a:	f7ff fffe 	bl	0 <_ZN4core4cell19UnsafeCell$LT$T$GT$3get17h4a78192b6ea74fbaE>
  5e:	f7ff fffe 	bl	0 <_ZN4core3ptr13read_volatile17h27f6a6d0639c3ab7E>
_ZN8cortex_m10peripheral3scb43_$LT$impl$u20$cortex_m..peripheral..SCB$GT$12get_priority17ha0945760c8cee2a5E():
/home/breetai/.cargo/registry/src/github.com-1ecc6299db9ec823/cortex-m-0.5.10/src/peripheral/scb.rs:594
  62:	9001      	str	r0, [sp, #4]
  64:	e7ff      	b.n	66 <_ZN8cortex_m10peripheral3scb43_$LT$impl$u20$cortex_m..peripheral..SCB$GT$12get_priority17ha0945760c8cee2a5E+0x66>
/home/breetai/.cargo/registry/src/github.com-1ecc6299db9ec823/cortex-m-0.5.10/src/peripheral/scb.rs:604
            // NOTE(unsafe) atomic read with no side effects
            let shpr = unsafe { (*Self::ptr()).shpr[usize::from((index - 8) / 4)].read() };
            let prio = (shpr >> (8 * (index % 4))) & 0x000000ff;
            prio as u8
        }
    }
  66:	9801      	ldr	r0, [sp, #4]
  68:	b00a      	add	sp, #40	; 0x28
  6a:	bd80      	pop	{r7, pc}
/home/breetai/.cargo/registry/src/github.com-1ecc6299db9ec823/cortex-m-0.5.10/src/peripheral/scb.rs:594
            unsafe { (*Self::ptr()).shpr[usize::from(index - 4)].read() }
  6c:	f240 0000 	movw	r0, #0
  70:	f2c0 0000 	movt	r0, #0
  74:	f240 0200 	movw	r2, #0
  78:	f2c0 0200 	movt	r2, #0
  7c:	2121      	movs	r1, #33	; 0x21
  7e:	f7ff fffe 	bl	0 <_ZN4core9panicking5panic17h8a599e70764df7ecE>
  82:	defe      	udf	#254	; 0xfe
  84:	f240 0200 	movw	r2, #0
  88:	f2c0 0200 	movt	r2, #0
  8c:	210c      	movs	r1, #12
  8e:	9802      	ldr	r0, [sp, #8]
  90:	f7ff fffe 	bl	0 <_ZN4core9panicking18panic_bounds_check17hf99c3f5b69789624E>
  94:	defe      	udf	#254	; 0xfe

Disassembly of section .text._ZN8cortex_m10peripheral3scb43_$LT$impl$u20$cortex_m..peripheral..SCB$GT$12set_priority17hb64a9de015cf4432E:

00000000 <_ZN8cortex_m10peripheral3scb43_$LT$impl$u20$cortex_m..peripheral..SCB$GT$12set_priority17hb64a9de015cf4432E>:
_ZN8cortex_m10peripheral3scb43_$LT$impl$u20$cortex_m..peripheral..SCB$GT$12set_priority17hb64a9de015cf4432E():
/home/breetai/.cargo/registry/src/github.com-1ecc6299db9ec823/cortex-m-0.5.10/src/peripheral/scb.rs:618
    ///
    /// # Unsafety
    ///
    /// Changing priority levels can break priority-based critical sections (see
    /// [`register::basepri`](../register/basepri/index.html)) and compromise memory safety.
    pub unsafe fn set_priority(&mut self, system_handler: SystemHandler, prio: u8) {
   0:	b580      	push	{r7, lr}
   2:	466f      	mov	r7, sp
   4:	b08e      	sub	sp, #56	; 0x38
   6:	4613      	mov	r3, r2
   8:	468c      	mov	ip, r1
   a:	f807 1c19 	strb.w	r1, [r7, #-25]
   e:	9008      	str	r0, [sp, #32]
  10:	f807 2c12 	strb.w	r2, [r7, #-18]
  14:	f1a7 0119 	sub.w	r1, r7, #25
/home/breetai/.cargo/registry/src/github.com-1ecc6299db9ec823/cortex-m-0.5.10/src/peripheral/scb.rs:619
        let index = system_handler_index(&system_handler);
  18:	9006      	str	r0, [sp, #24]
  1a:	4608      	mov	r0, r1
  1c:	9305      	str	r3, [sp, #20]
  1e:	f8cd c010 	str.w	ip, [sp, #16]
  22:	f7ff fffe 	bl	0 <_ZN8cortex_m10peripheral3scb20system_handler_index17h01bf2abfc754a6a3E>
  26:	4601      	mov	r1, r0
  28:	f807 0c11 	strb.w	r0, [r7, #-17]
  2c:	9103      	str	r1, [sp, #12]
  2e:	e7ff      	b.n	30 <_ZN8cortex_m10peripheral3scb43_$LT$impl$u20$cortex_m..peripheral..SCB$GT$12set_priority17hb64a9de015cf4432E+0x30>
/home/breetai/.cargo/registry/src/github.com-1ecc6299db9ec823/cortex-m-0.5.10/src/peripheral/scb.rs:623

        #[cfg(not(armv6m))]
        {
            self.shpr[usize::from(index - 4)].write(prio)
  30:	9806      	ldr	r0, [sp, #24]
  32:	f7ff fffe 	bl	0 <_ZN8cortex_m10peripheral3scb43_$LT$impl$u20$cortex_m..peripheral..SCB$GT$12set_priority17hb64a9de015cf4432E>
  36:	9002      	str	r0, [sp, #8]
  38:	e7ff      	b.n	3a <_ZN8cortex_m10peripheral3scb43_$LT$impl$u20$cortex_m..peripheral..SCB$GT$12set_priority17hb64a9de015cf4432E+0x3a>
  3a:	9803      	ldr	r0, [sp, #12]
  3c:	b2c1      	uxtb	r1, r0
  3e:	3904      	subs	r1, #4
  40:	b2ca      	uxtb	r2, r1
  42:	460b      	mov	r3, r1
  44:	428a      	cmp	r2, r1
  46:	9301      	str	r3, [sp, #4]
  48:	d11d      	bne.n	86 <_ZN8cortex_m10peripheral3scb43_$LT$impl$u20$cortex_m..peripheral..SCB$GT$12set_priority17hb64a9de015cf4432E+0x86>
  4a:	e7ff      	b.n	4c <_ZN8cortex_m10peripheral3scb43_$LT$impl$u20$cortex_m..peripheral..SCB$GT$12set_priority17hb64a9de015cf4432E+0x4c>
  4c:	9801      	ldr	r0, [sp, #4]
  4e:	f7ff fffe 	bl	0 <_ZN4core7convert3num65_$LT$impl$u20$core..convert..From$LT$u8$GT$$u20$for$u20$usize$GT$4from17ha930bdfe819cbbdcE>
  52:	9000      	str	r0, [sp, #0]
  54:	e7ff      	b.n	56 <_ZN8cortex_m10peripheral3scb43_$LT$impl$u20$cortex_m..peripheral..SCB$GT$12set_priority17hb64a9de015cf4432E+0x56>
  56:	9800      	ldr	r0, [sp, #0]
  58:	280b      	cmp	r0, #11
  5a:	d820      	bhi.n	9e <_ZN8cortex_m10peripheral3scb43_$LT$impl$u20$cortex_m..peripheral..SCB$GT$12set_priority17hb64a9de015cf4432E+0x9e>
  5c:	e7ff      	b.n	5e <_ZN8cortex_m10peripheral3scb43_$LT$impl$u20$cortex_m..peripheral..SCB$GT$12set_priority17hb64a9de015cf4432E+0x5e>
  5e:	9802      	ldr	r0, [sp, #8]
  60:	9900      	ldr	r1, [sp, #0]
  62:	1842      	adds	r2, r0, r1
  64:	3214      	adds	r2, #20
  66:	920a      	str	r2, [sp, #40]	; 0x28
  68:	9b05      	ldr	r3, [sp, #20]
  6a:	f807 3c09 	strb.w	r3, [r7, #-9]
  6e:	920c      	str	r2, [sp, #48]	; 0x30
  70:	f807 3c01 	strb.w	r3, [r7, #-1]
_ZN5vcell21VolatileCell$LT$T$GT$3set17hf1e6a1a726863dfbE():
/home/breetai/.cargo/registry/src/github.com-1ecc6299db9ec823/vcell-0.1.2/src/lib.rs:40
        unsafe { ptr::write_volatile(self.value.get(), value) }
  74:	4610      	mov	r0, r2
  76:	f7ff fffe 	bl	0 <_ZN4core4cell19UnsafeCell$LT$T$GT$3get17h4a78192b6ea74fbaE>
  7a:	9905      	ldr	r1, [sp, #20]
  7c:	f7ff fffe 	bl	0 <_ZN4core3ptr14write_volatile17h38354b0c5c8da508E>
_ZN8cortex_m10peripheral3scb43_$LT$impl$u20$cortex_m..peripheral..SCB$GT$12set_priority17hb64a9de015cf4432E():
/home/breetai/.cargo/registry/src/github.com-1ecc6299db9ec823/cortex-m-0.5.10/src/peripheral/scb.rs:623
  80:	e7ff      	b.n	82 <_ZN8cortex_m10peripheral3scb43_$LT$impl$u20$cortex_m..peripheral..SCB$GT$12set_priority17hb64a9de015cf4432E+0x82>
/home/breetai/.cargo/registry/src/github.com-1ecc6299db9ec823/cortex-m-0.5.10/src/peripheral/scb.rs:636
                let prio = u32::from(prio) << shift;

                (value & !mask) | prio
            });
        }
    }
  82:	b00e      	add	sp, #56	; 0x38
  84:	bd80      	pop	{r7, pc}
/home/breetai/.cargo/registry/src/github.com-1ecc6299db9ec823/cortex-m-0.5.10/src/peripheral/scb.rs:623
            self.shpr[usize::from(index - 4)].write(prio)
  86:	f240 0000 	movw	r0, #0
  8a:	f2c0 0000 	movt	r0, #0
  8e:	f240 0200 	movw	r2, #0
  92:	f2c0 0200 	movt	r2, #0
  96:	2121      	movs	r1, #33	; 0x21
  98:	f7ff fffe 	bl	0 <_ZN4core9panicking5panic17h8a599e70764df7ecE>
  9c:	defe      	udf	#254	; 0xfe
  9e:	f240 0200 	movw	r2, #0
  a2:	f2c0 0200 	movt	r2, #0
  a6:	210c      	movs	r1, #12
  a8:	9800      	ldr	r0, [sp, #0]
  aa:	f7ff fffe 	bl	0 <_ZN4core9panicking18panic_bounds_check17hf99c3f5b69789624E>
  ae:	defe      	udf	#254	; 0xfe

Disassembly of section .text._ZN8cortex_m10peripheral11Peripherals5steal17h66c97f343d4c4157E:

00000000 <_ZN8cortex_m10peripheral11Peripherals5steal17h66c97f343d4c4157E>:
_ZN8cortex_m10peripheral11Peripherals5steal17h66c97f343d4c4157E():
/home/breetai/.cargo/registry/src/github.com-1ecc6299db9ec823/cortex-m-0.5.10/src/peripheral/mod.rs:161
            }
        })
    }

    /// Unchecked version of `Peripherals::take`
    pub unsafe fn steal() -> Self {
   0:	b580      	push	{r7, lr}
   2:	466f      	mov	r7, sp
/home/breetai/.cargo/registry/src/github.com-1ecc6299db9ec823/cortex-m-0.5.10/src/peripheral/mod.rs:162
        debug_assert!(!CORE_PERIPHERALS);
   4:	f240 0000 	movw	r0, #0
   8:	f2c0 0000 	movt	r0, #0
   c:	7800      	ldrb	r0, [r0, #0]
   e:	07c0      	lsls	r0, r0, #31
  10:	2800      	cmp	r0, #0
  12:	d107      	bne.n	24 <_ZN8cortex_m10peripheral11Peripherals5steal17h66c97f343d4c4157E+0x24>
  14:	e7ff      	b.n	16 <_ZN8cortex_m10peripheral11Peripherals5steal17h66c97f343d4c4157E+0x16>
/home/breetai/.cargo/registry/src/github.com-1ecc6299db9ec823/cortex-m-0.5.10/src/peripheral/mod.rs:164

        CORE_PERIPHERALS = true;
  16:	f240 0000 	movw	r0, #0
  1a:	f2c0 0000 	movt	r0, #0
  1e:	2101      	movs	r1, #1
  20:	7001      	strb	r1, [r0, #0]
/home/breetai/.cargo/registry/src/github.com-1ecc6299db9ec823/cortex-m-0.5.10/src/peripheral/mod.rs:165
        core::mem::transmute(())
  22:	e00b      	b.n	3c <_ZN8cortex_m10peripheral11Peripherals5steal17h66c97f343d4c4157E+0x3c>
/home/breetai/.cargo/registry/src/github.com-1ecc6299db9ec823/cortex-m-0.5.10/src/peripheral/mod.rs:162
        debug_assert!(!CORE_PERIPHERALS);
  24:	f240 0000 	movw	r0, #0
  28:	f2c0 0000 	movt	r0, #0
  2c:	f240 0200 	movw	r2, #0
  30:	f2c0 0200 	movt	r2, #0
  34:	2123      	movs	r1, #35	; 0x23
  36:	f7ff fffe 	bl	0 <_ZN4core9panicking5panic17h8a599e70764df7ecE>
  3a:	defe      	udf	#254	; 0xfe
/home/breetai/.cargo/registry/src/github.com-1ecc6299db9ec823/cortex-m-0.5.10/src/peripheral/mod.rs:166
    }
  3c:	bd80      	pop	{r7, pc}

Disassembly of section .text._ZN8cortex_m10peripheral3DWT3ptr17he2aac87f5ce6e210E:

00000000 <_ZN8cortex_m10peripheral3DWT3ptr17he2aac87f5ce6e210E>:
_ZN8cortex_m10peripheral3DWT3ptr17he2aac87f5ce6e210E():
/home/breetai/.cargo/registry/src/github.com-1ecc6299db9ec823/cortex-m-0.5.10/src/peripheral/mod.rs:180

unsafe impl Send for DWT {}

impl DWT {
    /// Returns a pointer to the register block
    pub fn ptr() -> *const dwt::RegisterBlock {
   0:	f241 0000 	movw	r0, #4096	; 0x1000
   4:	f2ce 0000 	movt	r0, #57344	; 0xe000
/home/breetai/.cargo/registry/src/github.com-1ecc6299db9ec823/cortex-m-0.5.10/src/peripheral/mod.rs:182
        0xE000_1000 as *const _
    }
   8:	4770      	bx	lr

Disassembly of section .text._ZN69_$LT$cortex_m..peripheral..DWT$u20$as$u20$core..ops..deref..Deref$GT$5deref17hf6b9bafa3c81838fE:

00000000 <_ZN69_$LT$cortex_m..peripheral..DWT$u20$as$u20$core..ops..deref..Deref$GT$5deref17hf6b9bafa3c81838fE>:
_ZN69_$LT$cortex_m..peripheral..DWT$u20$as$u20$core..ops..deref..Deref$GT$5deref17hf6b9bafa3c81838fE():
/home/breetai/.cargo/registry/src/github.com-1ecc6299db9ec823/cortex-m-0.5.10/src/peripheral/mod.rs:188
}

impl ops::Deref for DWT {
    type Target = self::dwt::RegisterBlock;

    fn deref(&self) -> &Self::Target {
   0:	b580      	push	{r7, lr}
   2:	466f      	mov	r7, sp
   4:	b082      	sub	sp, #8
   6:	9001      	str	r0, [sp, #4]
/home/breetai/.cargo/registry/src/github.com-1ecc6299db9ec823/cortex-m-0.5.10/src/peripheral/mod.rs:189
        unsafe { &*Self::ptr() }
   8:	f7ff fffe 	bl	0 <_ZN69_$LT$cortex_m..peripheral..DWT$u20$as$u20$core..ops..deref..Deref$GT$5deref17hf6b9bafa3c81838fE>
   c:	9000      	str	r0, [sp, #0]
   e:	e7ff      	b.n	10 <_ZN69_$LT$cortex_m..peripheral..DWT$u20$as$u20$core..ops..deref..Deref$GT$5deref17hf6b9bafa3c81838fE+0x10>
/home/breetai/.cargo/registry/src/github.com-1ecc6299db9ec823/cortex-m-0.5.10/src/peripheral/mod.rs:190
    }
  10:	9800      	ldr	r0, [sp, #0]
  12:	b002      	add	sp, #8
  14:	bd80      	pop	{r7, pc}

Disassembly of section .text._ZN8cortex_m10peripheral4NVIC3ptr17hde573348b27b69beE:

00000000 <_ZN8cortex_m10peripheral4NVIC3ptr17hde573348b27b69beE>:
_ZN8cortex_m10peripheral4NVIC3ptr17hde573348b27b69beE():
/home/breetai/.cargo/registry/src/github.com-1ecc6299db9ec823/cortex-m-0.5.10/src/peripheral/mod.rs:202

unsafe impl Send for NVIC {}

impl NVIC {
    /// Returns a pointer to the register block
    pub fn ptr() -> *const nvic::RegisterBlock {
   0:	f24e 1000 	movw	r0, #57600	; 0xe100
   4:	f2ce 0000 	movt	r0, #57344	; 0xe000
/home/breetai/.cargo/registry/src/github.com-1ecc6299db9ec823/cortex-m-0.5.10/src/peripheral/mod.rs:204
        0xE000_E100 as *const _
    }
   8:	4770      	bx	lr

Disassembly of section .text._ZN70_$LT$cortex_m..peripheral..NVIC$u20$as$u20$core..ops..deref..Deref$GT$5deref17h8f5a16da566cd75bE:

00000000 <_ZN70_$LT$cortex_m..peripheral..NVIC$u20$as$u20$core..ops..deref..Deref$GT$5deref17h8f5a16da566cd75bE>:
_ZN70_$LT$cortex_m..peripheral..NVIC$u20$as$u20$core..ops..deref..Deref$GT$5deref17h8f5a16da566cd75bE():
/home/breetai/.cargo/registry/src/github.com-1ecc6299db9ec823/cortex-m-0.5.10/src/peripheral/mod.rs:210
}

impl ops::Deref for NVIC {
    type Target = self::nvic::RegisterBlock;

    fn deref(&self) -> &Self::Target {
   0:	b580      	push	{r7, lr}
   2:	466f      	mov	r7, sp
   4:	b082      	sub	sp, #8
   6:	9001      	str	r0, [sp, #4]
/home/breetai/.cargo/registry/src/github.com-1ecc6299db9ec823/cortex-m-0.5.10/src/peripheral/mod.rs:211
        unsafe { &*Self::ptr() }
   8:	f7ff fffe 	bl	0 <_ZN70_$LT$cortex_m..peripheral..NVIC$u20$as$u20$core..ops..deref..Deref$GT$5deref17h8f5a16da566cd75bE>
   c:	9000      	str	r0, [sp, #0]
   e:	e7ff      	b.n	10 <_ZN70_$LT$cortex_m..peripheral..NVIC$u20$as$u20$core..ops..deref..Deref$GT$5deref17h8f5a16da566cd75bE+0x10>
/home/breetai/.cargo/registry/src/github.com-1ecc6299db9ec823/cortex-m-0.5.10/src/peripheral/mod.rs:212
    }
  10:	9800      	ldr	r0, [sp, #0]
  12:	b002      	add	sp, #8
  14:	bd80      	pop	{r7, pc}

Disassembly of section .text._ZN8cortex_m10peripheral3SCB3ptr17h4ffc0570a43651bcE:

00000000 <_ZN8cortex_m10peripheral3SCB3ptr17h4ffc0570a43651bcE>:
_ZN8cortex_m10peripheral3SCB3ptr17h4ffc0570a43651bcE():
/home/breetai/.cargo/registry/src/github.com-1ecc6299db9ec823/cortex-m-0.5.10/src/peripheral/mod.rs:224

unsafe impl Send for SCB {}

impl SCB {
    /// Returns a pointer to the register block
    pub fn ptr() -> *const scb::RegisterBlock {
   0:	f64e 5004 	movw	r0, #60676	; 0xed04
   4:	f2ce 0000 	movt	r0, #57344	; 0xe000
/home/breetai/.cargo/registry/src/github.com-1ecc6299db9ec823/cortex-m-0.5.10/src/peripheral/mod.rs:226
        0xE000_ED04 as *const _
    }
   8:	4770      	bx	lr

Disassembly of section .text._ZN69_$LT$cortex_m..peripheral..SCB$u20$as$u20$core..ops..deref..Deref$GT$5deref17hb0f176c56fa12d30E:

00000000 <_ZN69_$LT$cortex_m..peripheral..SCB$u20$as$u20$core..ops..deref..Deref$GT$5deref17hb0f176c56fa12d30E>:
_ZN69_$LT$cortex_m..peripheral..SCB$u20$as$u20$core..ops..deref..Deref$GT$5deref17hb0f176c56fa12d30E():
/home/breetai/.cargo/registry/src/github.com-1ecc6299db9ec823/cortex-m-0.5.10/src/peripheral/mod.rs:232
}

impl ops::Deref for SCB {
    type Target = self::scb::RegisterBlock;

    fn deref(&self) -> &Self::Target {
   0:	b580      	push	{r7, lr}
   2:	466f      	mov	r7, sp
   4:	b082      	sub	sp, #8
   6:	9001      	str	r0, [sp, #4]
/home/breetai/.cargo/registry/src/github.com-1ecc6299db9ec823/cortex-m-0.5.10/src/peripheral/mod.rs:233
        unsafe { &*Self::ptr() }
   8:	f7ff fffe 	bl	0 <_ZN69_$LT$cortex_m..peripheral..SCB$u20$as$u20$core..ops..deref..Deref$GT$5deref17hb0f176c56fa12d30E>
   c:	9000      	str	r0, [sp, #0]
   e:	e7ff      	b.n	10 <_ZN69_$LT$cortex_m..peripheral..SCB$u20$as$u20$core..ops..deref..Deref$GT$5deref17hb0f176c56fa12d30E+0x10>
/home/breetai/.cargo/registry/src/github.com-1ecc6299db9ec823/cortex-m-0.5.10/src/peripheral/mod.rs:234
    }
  10:	9800      	ldr	r0, [sp, #0]
  12:	b002      	add	sp, #8
  14:	bd80      	pop	{r7, pc}

cortex_m-bde398208d4285f9.cortex_m.9i9xlcl7-cgu.0.rcgu.o:     file format elf32-littlearm

SYMBOL TABLE:
00000000 l    df *ABS*	00000000 cortex_m.9i9xlcl7-cgu.0
00000000 l       .debug_str	00000000 
00000041 l       .debug_str	00000000 
00000099 l       .debug_str	00000000 
000000e6 l       .debug_str	00000000 
000000eb l       .debug_str	00000000 
000000ef l       .debug_str	00000000 
000000f3 l       .debug_str	00000000 
000000f9 l       .debug_str	00000000 
000000fb l       .debug_str	00000000 
00000124 l       .debug_str	00000000 
00000133 l       .debug_str	00000000 
0000014d l       .debug_str	00000000 
00000151 l       .debug_str	00000000 
00000155 l       .debug_str	00000000 
00000159 l       .debug_str	00000000 
0000015d l       .debug_str	00000000 
00000161 l       .debug_str	00000000 
00000167 l       .debug_str	00000000 
00000190 l       .debug_str	00000000 
000001c5 l       .debug_str	00000000 
000001d2 l       .debug_str	00000000 
000001d9 l       .debug_str	00000000 
000001dc l       .debug_str	00000000 
000001e2 l       .debug_str	00000000 
000001f0 l       .debug_str	00000000 
000001f4 l       .debug_str	00000000 
00000206 l       .debug_str	00000000 
00000217 l       .debug_str	00000000 
00000263 l       .debug_str	00000000 
0000026f l       .debug_str	00000000 
00000283 l       .debug_str	00000000 
00000296 l       .debug_str	00000000 
000002e2 l       .debug_str	00000000 
000002f0 l       .debug_str	00000000 
000002f4 l       .debug_str	00000000 
00000306 l       .debug_str	00000000 
00000317 l       .debug_str	00000000 
00000363 l       .debug_str	00000000 
0000036f l       .debug_str	00000000 
0000039f l       .debug_str	00000000 
000003b2 l       .debug_str	00000000 
000003e3 l       .debug_str	00000000 
000003f7 l       .debug_str	00000000 
000003fa l       .debug_str	00000000 
0000042b l       .debug_str	00000000 
0000043e l       .debug_str	00000000 
0000046f l       .debug_str	00000000 
00000483 l       .debug_str	00000000 
000004b9 l       .debug_str	00000000 
000004d4 l       .debug_str	00000000 
0000050b l       .debug_str	00000000 
00000524 l       .debug_str	00000000 
0000052d l       .debug_str	00000000 
00000537 l       .debug_str	00000000 
0000053e l       .debug_str	00000000 
0000054a l       .debug_str	00000000 
00000581 l       .debug_str	00000000 
0000059b l       .debug_str	00000000 
000005a6 l       .debug_str	00000000 
000005b3 l       .debug_str	00000000 
000005ed l       .debug_str	00000000 
0000060c l       .debug_str	00000000 
00000648 l       .debug_str	00000000 
0000066e l       .debug_str	00000000 
00000678 l       .debug_str	00000000 
0000069e l       .debug_str	00000000 
000006aa l       .debug_str	00000000 
000006d0 l       .debug_str	00000000 
000006da l       .debug_str	00000000 
00000701 l       .debug_str	00000000 
0000070e l       .debug_str	00000000 
00000712 l       .debug_str	00000000 
00000716 l       .debug_str	00000000 
0000071f l       .debug_str	00000000 
00000727 l       .debug_str	00000000 
00000730 l       .debug_str	00000000 
00000732 l       .debug_str	00000000 
0000073d l       .debug_str	00000000 
0000073f l       .debug_str	00000000 
00000745 l       .debug_str	00000000 
00000749 l       .debug_str	00000000 
0000074e l       .debug_str	00000000 
00000750 l       .debug_str	00000000 
00000752 l       .debug_str	00000000 
00000754 l       .debug_str	00000000 
0000078e l       .debug_str	00000000 
000007c7 l       .debug_str	00000000 
000007d6 l       .debug_str	00000000 
00000819 l       .debug_str	00000000 
0000085b l       .debug_str	00000000 
00000866 l       .debug_str	00000000 
0000086a l       .debug_str	00000000 
00000875 l       .debug_str	00000000 
00000879 l       .debug_str	00000000 
00000000 l     F .text._ZN4core3ptr25swap_nonoverlapping_bytes17h962f9a3c83b0542aE	0000011e _ZN4core3ptr25swap_nonoverlapping_bytes17h962f9a3c83b0542aE
00000000 l    d  .text._ZN4core3ptr13read_volatile17h88c712f13a83cf6bE	00000000 .text._ZN4core3ptr13read_volatile17h88c712f13a83cf6bE
00000000 l    d  .text._ZN4core3ptr14write_volatile17h1358ef004bfcaf4dE	00000000 .text._ZN4core3ptr14write_volatile17h1358ef004bfcaf4dE
00000000 l    d  .text._ZN4core3ptr14write_volatile17h38354b0c5c8da508E	00000000 .text._ZN4core3ptr14write_volatile17h38354b0c5c8da508E
00000000 l    d  .text._ZN4core3ptr14write_volatile17hed376bf92c49a5f4E	00000000 .text._ZN4core3ptr14write_volatile17hed376bf92c49a5f4E
00000000 l    d  .text._ZN4core3ptr19swap_nonoverlapping17h8268c633753fc511E	00000000 .text._ZN4core3ptr19swap_nonoverlapping17h8268c633753fc511E
00000000 l    d  .text._ZN4core3ptr20slice_from_raw_parts17hcfaad113b4a68ae8E	00000000 .text._ZN4core3ptr20slice_from_raw_parts17hcfaad113b4a68ae8E
00000000 l    d  .text._ZN4core3ptr20slice_from_raw_parts17hf039db99a1bc99c2E	00000000 .text._ZN4core3ptr20slice_from_raw_parts17hf039db99a1bc99c2E
00000000 l    d  .text._ZN4core3ptr23swap_nonoverlapping_one17ha4fa4cb11a04cde2E	00000000 .text._ZN4core3ptr23swap_nonoverlapping_one17ha4fa4cb11a04cde2E
00000000 l    d  .text._ZN4core3ptr25swap_nonoverlapping_bytes17h962f9a3c83b0542aE	00000000 .text._ZN4core3ptr25swap_nonoverlapping_bytes17h962f9a3c83b0542aE
00000000 l    d  .text._ZN4core3ptr4read17h09d0ff5656a6efaeE	00000000 .text._ZN4core3ptr4read17h09d0ff5656a6efaeE
00000000 l    d  .text._ZN4core3ptr4read17h763f94988a1a535bE	00000000 .text._ZN4core3ptr4read17h763f94988a1a535bE
00000000 l    d  .text._ZN4core3ptr4read17hd27590e973e13d30E	00000000 .text._ZN4core3ptr4read17hd27590e973e13d30E
00000000 l    d  .text._ZN4core3ptr5write17h8a8ca17b06e34396E	00000000 .text._ZN4core3ptr5write17h8a8ca17b06e34396E
00000000 l    d  .debug_abbrev	00000000 .debug_abbrev
00000000 l    d  .debug_info	00000000 .debug_info
00000000 l    d  .debug_ranges	00000000 .debug_ranges
00000000 l    d  .debug_frame	00000000 .debug_frame
00000000 l    d  .debug_line	00000000 .debug_line
00000000         *UND*	00000000 _ZN4core10intrinsics19copy_nonoverlapping17h0dbbcbab8fa7fb32E
00000000         *UND*	00000000 _ZN4core10intrinsics19copy_nonoverlapping17h4c48cebe1c6e607dE
00000000         *UND*	00000000 _ZN4core10intrinsics19copy_nonoverlapping17h8ac670e88845f6b2E
00000000         *UND*	00000000 _ZN4core10intrinsics19copy_nonoverlapping17hb13b2bcb2bec2bffE
00000000 g     F .text._ZN4core3ptr13read_volatile17h88c712f13a83cf6bE	00000014 _ZN4core3ptr13read_volatile17h88c712f13a83cf6bE
00000000 g     F .text._ZN4core3ptr14write_volatile17h1358ef004bfcaf4dE	0000000e _ZN4core3ptr14write_volatile17h1358ef004bfcaf4dE
00000000 g     F .text._ZN4core3ptr14write_volatile17h38354b0c5c8da508E	00000012 _ZN4core3ptr14write_volatile17h38354b0c5c8da508E
00000000 g     F .text._ZN4core3ptr14write_volatile17hed376bf92c49a5f4E	00000012 _ZN4core3ptr14write_volatile17hed376bf92c49a5f4E
00000000 g     F .text._ZN4core3ptr19swap_nonoverlapping17h8268c633753fc511E	0000003c _ZN4core3ptr19swap_nonoverlapping17h8268c633753fc511E
00000000 g     F .text._ZN4core3ptr20slice_from_raw_parts17hcfaad113b4a68ae8E	0000001a _ZN4core3ptr20slice_from_raw_parts17hcfaad113b4a68ae8E
00000000 g     F .text._ZN4core3ptr20slice_from_raw_parts17hf039db99a1bc99c2E	0000001a _ZN4core3ptr20slice_from_raw_parts17hf039db99a1bc99c2E
00000000 g     F .text._ZN4core3ptr23swap_nonoverlapping_one17ha4fa4cb11a04cde2E	00000058 _ZN4core3ptr23swap_nonoverlapping_one17ha4fa4cb11a04cde2E
00000000 g     F .text._ZN4core3ptr4read17h09d0ff5656a6efaeE	00000044 _ZN4core3ptr4read17h09d0ff5656a6efaeE
00000000 g     F .text._ZN4core3ptr4read17h763f94988a1a535bE	00000034 _ZN4core3ptr4read17h763f94988a1a535bE
00000000 g     F .text._ZN4core3ptr4read17hd27590e973e13d30E	00000034 _ZN4core3ptr4read17hd27590e973e13d30E
00000000 g     F .text._ZN4core3ptr5write17h8a8ca17b06e34396E	0000000c _ZN4core3ptr5write17h8a8ca17b06e34396E
00000000         *UND*	00000000 _ZN4core3ptr7mut_ptr31_$LT$impl$u20$$BP$mut$u20$T$GT$3add17hf1110806025a778fE



Disassembly of section .text._ZN4core3ptr13read_volatile17h88c712f13a83cf6bE:

00000000 <_ZN4core3ptr13read_volatile17h88c712f13a83cf6bE>:
_ZN4core3ptr13read_volatile17h88c712f13a83cf6bE():
/home/breetai/.rustup/toolchains/nightly-x86_64-unknown-linux-gnu/lib/rustlib/src/rust/src/libcore/ptr/mod.rs:999
///     assert_eq!(std::ptr::read_volatile(y), 12);
/// }
/// ```
#[inline]
#[stable(feature = "volatile", since = "1.9.0")]
pub unsafe fn read_volatile<T>(src: *const T) -> T {
   0:	b083      	sub	sp, #12
   2:	9001      	str	r0, [sp, #4]
/home/breetai/.rustup/toolchains/nightly-x86_64-unknown-linux-gnu/lib/rustlib/src/rust/src/libcore/ptr/mod.rs:1001
    debug_assert!(is_aligned_and_not_null(src), "attempt to read from unaligned or null pointer");
    intrinsics::volatile_load(src)
   4:	6800      	ldr	r0, [r0, #0]
   6:	9002      	str	r0, [sp, #8]
   8:	9802      	ldr	r0, [sp, #8]
   a:	9000      	str	r0, [sp, #0]
   c:	e7ff      	b.n	e <_ZN4core3ptr13read_volatile17h88c712f13a83cf6bE+0xe>
/home/breetai/.rustup/toolchains/nightly-x86_64-unknown-linux-gnu/lib/rustlib/src/rust/src/libcore/ptr/mod.rs:1002
}
   e:	9800      	ldr	r0, [sp, #0]
  10:	b003      	add	sp, #12
  12:	4770      	bx	lr

Disassembly of section .text._ZN4core3ptr14write_volatile17h1358ef004bfcaf4dE:

00000000 <_ZN4core3ptr14write_volatile17h1358ef004bfcaf4dE>:
_ZN4core3ptr14write_volatile17h1358ef004bfcaf4dE():
/home/breetai/.rustup/toolchains/nightly-x86_64-unknown-linux-gnu/lib/rustlib/src/rust/src/libcore/ptr/mod.rs:1068
///     assert_eq!(std::ptr::read_volatile(y), 12);
/// }
/// ```
#[inline]
#[stable(feature = "volatile", since = "1.9.0")]
pub unsafe fn write_volatile<T>(dst: *mut T, src: T) {
   0:	b082      	sub	sp, #8
   2:	9000      	str	r0, [sp, #0]
   4:	9101      	str	r1, [sp, #4]
/home/breetai/.rustup/toolchains/nightly-x86_64-unknown-linux-gnu/lib/rustlib/src/rust/src/libcore/ptr/mod.rs:1070
    debug_assert!(is_aligned_and_not_null(dst), "attempt to write to unaligned or null pointer");
    intrinsics::volatile_store(dst, src);
   6:	6001      	str	r1, [r0, #0]
   8:	e7ff      	b.n	a <_ZN4core3ptr14write_volatile17h1358ef004bfcaf4dE+0xa>
/home/breetai/.rustup/toolchains/nightly-x86_64-unknown-linux-gnu/lib/rustlib/src/rust/src/libcore/ptr/mod.rs:1071
}
   a:	b002      	add	sp, #8
   c:	4770      	bx	lr

Disassembly of section .text._ZN4core3ptr14write_volatile17h38354b0c5c8da508E:

00000000 <_ZN4core3ptr14write_volatile17h38354b0c5c8da508E>:
_ZN4core3ptr14write_volatile17h38354b0c5c8da508E():
/home/breetai/.rustup/toolchains/nightly-x86_64-unknown-linux-gnu/lib/rustlib/src/rust/src/libcore/ptr/mod.rs:1068
pub unsafe fn write_volatile<T>(dst: *mut T, src: T) {
   0:	b082      	sub	sp, #8
   2:	460a      	mov	r2, r1
   4:	9000      	str	r0, [sp, #0]
   6:	f88d 1007 	strb.w	r1, [sp, #7]
/home/breetai/.rustup/toolchains/nightly-x86_64-unknown-linux-gnu/lib/rustlib/src/rust/src/libcore/ptr/mod.rs:1070
    intrinsics::volatile_store(dst, src);
   a:	7001      	strb	r1, [r0, #0]
   c:	e7ff      	b.n	e <_ZN4core3ptr14write_volatile17h38354b0c5c8da508E+0xe>
/home/breetai/.rustup/toolchains/nightly-x86_64-unknown-linux-gnu/lib/rustlib/src/rust/src/libcore/ptr/mod.rs:1071
}
   e:	b002      	add	sp, #8
  10:	4770      	bx	lr

Disassembly of section .text._ZN4core3ptr14write_volatile17hed376bf92c49a5f4E:

00000000 <_ZN4core3ptr14write_volatile17hed376bf92c49a5f4E>:
_ZN4core3ptr14write_volatile17hed376bf92c49a5f4E():
/home/breetai/.rustup/toolchains/nightly-x86_64-unknown-linux-gnu/lib/rustlib/src/rust/src/libcore/ptr/mod.rs:1068
pub unsafe fn write_volatile<T>(dst: *mut T, src: T) {
   0:	b082      	sub	sp, #8
   2:	460a      	mov	r2, r1
   4:	9000      	str	r0, [sp, #0]
   6:	f8ad 1006 	strh.w	r1, [sp, #6]
/home/breetai/.rustup/toolchains/nightly-x86_64-unknown-linux-gnu/lib/rustlib/src/rust/src/libcore/ptr/mod.rs:1070
    intrinsics::volatile_store(dst, src);
   a:	8001      	strh	r1, [r0, #0]
   c:	e7ff      	b.n	e <_ZN4core3ptr14write_volatile17hed376bf92c49a5f4E+0xe>
/home/breetai/.rustup/toolchains/nightly-x86_64-unknown-linux-gnu/lib/rustlib/src/rust/src/libcore/ptr/mod.rs:1071
}
   e:	b002      	add	sp, #8
  10:	4770      	bx	lr

Disassembly of section .text._ZN4core3ptr19swap_nonoverlapping17h8268c633753fc511E:

00000000 <_ZN4core3ptr19swap_nonoverlapping17h8268c633753fc511E>:
_ZN4core3ptr19swap_nonoverlapping17h8268c633753fc511E():
/home/breetai/.rustup/toolchains/nightly-x86_64-unknown-linux-gnu/lib/rustlib/src/rust/src/libcore/ptr/mod.rs:416
pub unsafe fn swap_nonoverlapping<T>(x: *mut T, y: *mut T, count: usize) {
   0:	b580      	push	{r7, lr}
   2:	466f      	mov	r7, sp
   4:	b08c      	sub	sp, #48	; 0x30
   6:	9005      	str	r0, [sp, #20]
   8:	9106      	str	r1, [sp, #24]
   a:	9207      	str	r2, [sp, #28]
/home/breetai/.rustup/toolchains/nightly-x86_64-unknown-linux-gnu/lib/rustlib/src/rust/src/libcore/ptr/mod.rs:421
    let x = x as *mut u8;
   c:	4603      	mov	r3, r0
   e:	9008      	str	r0, [sp, #32]
/home/breetai/.rustup/toolchains/nightly-x86_64-unknown-linux-gnu/lib/rustlib/src/rust/src/libcore/ptr/mod.rs:422
    let y = y as *mut u8;
  10:	4608      	mov	r0, r1
  12:	9109      	str	r1, [sp, #36]	; 0x24
  14:	2104      	movs	r1, #4
_ZN4core3mem7size_of17h0b77c2c1e939f6d4E():
/home/breetai/.rustup/toolchains/nightly-x86_64-unknown-linux-gnu/lib/rustlib/src/rust/src/libcore/mem/mod.rs:310
#[inline(always)]
#[stable(feature = "rust1", since = "1.0.0")]
#[rustc_promotable]
#[rustc_const_stable(feature = "const_size_of", since = "1.32.0")]
pub const fn size_of<T>() -> usize {
    intrinsics::size_of::<T>()
  16:	910b      	str	r1, [sp, #44]	; 0x2c
  18:	990b      	ldr	r1, [sp, #44]	; 0x2c
_ZN4core3ptr19swap_nonoverlapping17h8268c633753fc511E():
/home/breetai/.rustup/toolchains/nightly-x86_64-unknown-linux-gnu/lib/rustlib/src/rust/src/libcore/ptr/mod.rs:423
    let len = mem::size_of::<T>() * count;
  1a:	9204      	str	r2, [sp, #16]
  1c:	9303      	str	r3, [sp, #12]
  1e:	9002      	str	r0, [sp, #8]
  20:	9101      	str	r1, [sp, #4]
  22:	e7ff      	b.n	24 <_ZN4core3ptr19swap_nonoverlapping17h8268c633753fc511E+0x24>
  24:	9801      	ldr	r0, [sp, #4]
  26:	9904      	ldr	r1, [sp, #16]
  28:	fb00 f201 	mul.w	r2, r0, r1
  2c:	920a      	str	r2, [sp, #40]	; 0x28
/home/breetai/.rustup/toolchains/nightly-x86_64-unknown-linux-gnu/lib/rustlib/src/rust/src/libcore/ptr/mod.rs:424
    swap_nonoverlapping_bytes(x, y, len)
  2e:	9803      	ldr	r0, [sp, #12]
  30:	9902      	ldr	r1, [sp, #8]
  32:	f7ff fffe 	bl	0 <_ZN4core3ptr19swap_nonoverlapping17h8268c633753fc511E>
  36:	e7ff      	b.n	38 <_ZN4core3ptr19swap_nonoverlapping17h8268c633753fc511E+0x38>
/home/breetai/.rustup/toolchains/nightly-x86_64-unknown-linux-gnu/lib/rustlib/src/rust/src/libcore/ptr/mod.rs:425
}
  38:	b00c      	add	sp, #48	; 0x30
  3a:	bd80      	pop	{r7, pc}

Disassembly of section .text._ZN4core3ptr20slice_from_raw_parts17hcfaad113b4a68ae8E:

00000000 <_ZN4core3ptr20slice_from_raw_parts17hcfaad113b4a68ae8E>:
_ZN4core3ptr20slice_from_raw_parts17hcfaad113b4a68ae8E():
/home/breetai/.rustup/toolchains/nightly-x86_64-unknown-linux-gnu/lib/rustlib/src/rust/src/libcore/ptr/mod.rs:256
pub const fn slice_from_raw_parts<T>(data: *const T, len: usize) -> *const [T] {
   0:	b086      	sub	sp, #24
   2:	9004      	str	r0, [sp, #16]
   4:	9105      	str	r1, [sp, #20]
/home/breetai/.rustup/toolchains/nightly-x86_64-unknown-linux-gnu/lib/rustlib/src/rust/src/libcore/ptr/mod.rs:260
    unsafe { Repr { raw: FatPtr { data, len } }.rust }
   6:	9002      	str	r0, [sp, #8]
   8:	9103      	str	r1, [sp, #12]
   a:	9802      	ldr	r0, [sp, #8]
   c:	9903      	ldr	r1, [sp, #12]
   e:	9000      	str	r0, [sp, #0]
  10:	9101      	str	r1, [sp, #4]
  12:	9800      	ldr	r0, [sp, #0]
  14:	9901      	ldr	r1, [sp, #4]
/home/breetai/.rustup/toolchains/nightly-x86_64-unknown-linux-gnu/lib/rustlib/src/rust/src/libcore/ptr/mod.rs:261
}
  16:	b006      	add	sp, #24
  18:	4770      	bx	lr

Disassembly of section .text._ZN4core3ptr20slice_from_raw_parts17hf039db99a1bc99c2E:

00000000 <_ZN4core3ptr20slice_from_raw_parts17hf039db99a1bc99c2E>:
_ZN4core3ptr20slice_from_raw_parts17hf039db99a1bc99c2E():
/home/breetai/.rustup/toolchains/nightly-x86_64-unknown-linux-gnu/lib/rustlib/src/rust/src/libcore/ptr/mod.rs:256
pub const fn slice_from_raw_parts<T>(data: *const T, len: usize) -> *const [T] {
   0:	b086      	sub	sp, #24
   2:	9004      	str	r0, [sp, #16]
   4:	9105      	str	r1, [sp, #20]
/home/breetai/.rustup/toolchains/nightly-x86_64-unknown-linux-gnu/lib/rustlib/src/rust/src/libcore/ptr/mod.rs:260
    unsafe { Repr { raw: FatPtr { data, len } }.rust }
   6:	9002      	str	r0, [sp, #8]
   8:	9103      	str	r1, [sp, #12]
   a:	9802      	ldr	r0, [sp, #8]
   c:	9903      	ldr	r1, [sp, #12]
   e:	9000      	str	r0, [sp, #0]
  10:	9101      	str	r1, [sp, #4]
  12:	9800      	ldr	r0, [sp, #0]
  14:	9901      	ldr	r1, [sp, #4]
/home/breetai/.rustup/toolchains/nightly-x86_64-unknown-linux-gnu/lib/rustlib/src/rust/src/libcore/ptr/mod.rs:261
}
  16:	b006      	add	sp, #24
  18:	4770      	bx	lr

Disassembly of section .text._ZN4core3ptr23swap_nonoverlapping_one17ha4fa4cb11a04cde2E:

00000000 <_ZN4core3ptr23swap_nonoverlapping_one17ha4fa4cb11a04cde2E>:
_ZN4core3ptr23swap_nonoverlapping_one17ha4fa4cb11a04cde2E():
/home/breetai/.rustup/toolchains/nightly-x86_64-unknown-linux-gnu/lib/rustlib/src/rust/src/libcore/ptr/mod.rs:428
pub(crate) unsafe fn swap_nonoverlapping_one<T>(x: *mut T, y: *mut T) {
   0:	b580      	push	{r7, lr}
   2:	466f      	mov	r7, sp
   4:	b08a      	sub	sp, #40	; 0x28
   6:	9006      	str	r0, [sp, #24]
   8:	9107      	str	r1, [sp, #28]
   a:	2204      	movs	r2, #4
_ZN4core3mem7size_of17h0b77c2c1e939f6d4E():
/home/breetai/.rustup/toolchains/nightly-x86_64-unknown-linux-gnu/lib/rustlib/src/rust/src/libcore/mem/mod.rs:310
   c:	9209      	str	r2, [sp, #36]	; 0x24
   e:	9a09      	ldr	r2, [sp, #36]	; 0x24
_ZN4core3ptr23swap_nonoverlapping_one17ha4fa4cb11a04cde2E():
/home/breetai/.rustup/toolchains/nightly-x86_64-unknown-linux-gnu/lib/rustlib/src/rust/src/libcore/ptr/mod.rs:431
    if mem::size_of::<T>() < 32 {
  10:	9104      	str	r1, [sp, #16]
  12:	9003      	str	r0, [sp, #12]
  14:	9202      	str	r2, [sp, #8]
  16:	e7ff      	b.n	18 <_ZN4core3ptr23swap_nonoverlapping_one17ha4fa4cb11a04cde2E+0x18>
  18:	9802      	ldr	r0, [sp, #8]
  1a:	2820      	cmp	r0, #32
  1c:	d306      	bcc.n	2c <_ZN4core3ptr23swap_nonoverlapping_one17ha4fa4cb11a04cde2E+0x2c>
  1e:	e7ff      	b.n	20 <_ZN4core3ptr23swap_nonoverlapping_one17ha4fa4cb11a04cde2E+0x20>
  20:	2201      	movs	r2, #1
/home/breetai/.rustup/toolchains/nightly-x86_64-unknown-linux-gnu/lib/rustlib/src/rust/src/libcore/ptr/mod.rs:436
        swap_nonoverlapping(x, y, 1);
  22:	9803      	ldr	r0, [sp, #12]
  24:	9904      	ldr	r1, [sp, #16]
  26:	f7ff fffe 	bl	0 <_ZN4core3ptr23swap_nonoverlapping_one17ha4fa4cb11a04cde2E>
  2a:	e012      	b.n	52 <_ZN4core3ptr23swap_nonoverlapping_one17ha4fa4cb11a04cde2E+0x52>
/home/breetai/.rustup/toolchains/nightly-x86_64-unknown-linux-gnu/lib/rustlib/src/rust/src/libcore/ptr/mod.rs:432
        let z = read(x);
  2c:	9803      	ldr	r0, [sp, #12]
  2e:	f7ff fffe 	bl	0 <_ZN4core3ptr23swap_nonoverlapping_one17ha4fa4cb11a04cde2E>
  32:	4601      	mov	r1, r0
  34:	9008      	str	r0, [sp, #32]
  36:	9101      	str	r1, [sp, #4]
  38:	e7ff      	b.n	3a <_ZN4core3ptr23swap_nonoverlapping_one17ha4fa4cb11a04cde2E+0x3a>
  3a:	2201      	movs	r2, #1
/home/breetai/.rustup/toolchains/nightly-x86_64-unknown-linux-gnu/lib/rustlib/src/rust/src/libcore/ptr/mod.rs:433
        copy_nonoverlapping(y, x, 1);
  3c:	9804      	ldr	r0, [sp, #16]
  3e:	9903      	ldr	r1, [sp, #12]
  40:	f7ff fffe 	bl	0 <_ZN4core10intrinsics19copy_nonoverlapping17h0dbbcbab8fa7fb32E>
  44:	e7ff      	b.n	46 <_ZN4core3ptr23swap_nonoverlapping_one17ha4fa4cb11a04cde2E+0x46>
/home/breetai/.rustup/toolchains/nightly-x86_64-unknown-linux-gnu/lib/rustlib/src/rust/src/libcore/ptr/mod.rs:434
        write(y, z);
  46:	9804      	ldr	r0, [sp, #16]
  48:	9901      	ldr	r1, [sp, #4]
  4a:	f7ff fffe 	bl	0 <_ZN4core3ptr23swap_nonoverlapping_one17ha4fa4cb11a04cde2E>
  4e:	e7ff      	b.n	50 <_ZN4core3ptr23swap_nonoverlapping_one17ha4fa4cb11a04cde2E+0x50>
/home/breetai/.rustup/toolchains/nightly-x86_64-unknown-linux-gnu/lib/rustlib/src/rust/src/libcore/ptr/mod.rs:431
    if mem::size_of::<T>() < 32 {
  50:	e000      	b.n	54 <_ZN4core3ptr23swap_nonoverlapping_one17ha4fa4cb11a04cde2E+0x54>
  52:	e7ff      	b.n	54 <_ZN4core3ptr23swap_nonoverlapping_one17ha4fa4cb11a04cde2E+0x54>
/home/breetai/.rustup/toolchains/nightly-x86_64-unknown-linux-gnu/lib/rustlib/src/rust/src/libcore/ptr/mod.rs:438
}
  54:	b00a      	add	sp, #40	; 0x28
  56:	bd80      	pop	{r7, pc}

Disassembly of section .text._ZN4core3ptr25swap_nonoverlapping_bytes17h962f9a3c83b0542aE:

00000000 <_ZN4core3ptr25swap_nonoverlapping_bytes17h962f9a3c83b0542aE>:
_ZN4core3ptr25swap_nonoverlapping_bytes17h962f9a3c83b0542aE():
/home/breetai/.rustup/toolchains/nightly-x86_64-unknown-linux-gnu/lib/rustlib/src/rust/src/libcore/ptr/mod.rs:441
unsafe fn swap_nonoverlapping_bytes(x: *mut u8, y: *mut u8, len: usize) {
   0:	b5d0      	push	{r4, r6, r7, lr}
   2:	af02      	add	r7, sp, #8
   4:	b0b4      	sub	sp, #208	; 0xd0
   6:	466c      	mov	r4, sp
   8:	f36f 0404 	bfc	r4, #0, #5
   c:	46a5      	mov	sp, r4
   e:	9024      	str	r0, [sp, #144]	; 0x90
  10:	9125      	str	r1, [sp, #148]	; 0x94
  12:	9226      	str	r2, [sp, #152]	; 0x98
  14:	2320      	movs	r3, #32
_ZN4core3mem7size_of17hd7478cfd0c3ef257E():
/home/breetai/.rustup/toolchains/nightly-x86_64-unknown-linux-gnu/lib/rustlib/src/rust/src/libcore/mem/mod.rs:310
  16:	932f      	str	r3, [sp, #188]	; 0xbc
  18:	9b2f      	ldr	r3, [sp, #188]	; 0xbc
_ZN4core3ptr25swap_nonoverlapping_bytes17h962f9a3c83b0542aE():
/home/breetai/.rustup/toolchains/nightly-x86_64-unknown-linux-gnu/lib/rustlib/src/rust/src/libcore/ptr/mod.rs:452
    let block_size = mem::size_of::<Block>();
  1a:	9327      	str	r3, [sp, #156]	; 0x9c
  1c:	920d      	str	r2, [sp, #52]	; 0x34
  1e:	910c      	str	r1, [sp, #48]	; 0x30
  20:	900b      	str	r0, [sp, #44]	; 0x2c
  22:	930a      	str	r3, [sp, #40]	; 0x28
  24:	e7ff      	b.n	26 <_ZN4core3ptr25swap_nonoverlapping_bytes17h962f9a3c83b0542aE+0x26>
  26:	2000      	movs	r0, #0
/home/breetai/.rustup/toolchains/nightly-x86_64-unknown-linux-gnu/lib/rustlib/src/rust/src/libcore/ptr/mod.rs:457
    let mut i = 0;
  28:	900f      	str	r0, [sp, #60]	; 0x3c
/home/breetai/.rustup/toolchains/nightly-x86_64-unknown-linux-gnu/lib/rustlib/src/rust/src/libcore/ptr/mod.rs:458
    while i + block_size <= len {
  2a:	e7ff      	b.n	2c <_ZN4core3ptr25swap_nonoverlapping_bytes17h962f9a3c83b0542aE+0x2c>
  2c:	980f      	ldr	r0, [sp, #60]	; 0x3c
  2e:	990a      	ldr	r1, [sp, #40]	; 0x28
  30:	4408      	add	r0, r1
  32:	9a0d      	ldr	r2, [sp, #52]	; 0x34
  34:	4290      	cmp	r0, r2
  36:	d905      	bls.n	44 <_ZN4core3ptr25swap_nonoverlapping_bytes17h962f9a3c83b0542aE+0x44>
  38:	e7ff      	b.n	3a <_ZN4core3ptr25swap_nonoverlapping_bytes17h962f9a3c83b0542aE+0x3a>
/home/breetai/.rustup/toolchains/nightly-x86_64-unknown-linux-gnu/lib/rustlib/src/rust/src/libcore/ptr/mod.rs:474
    if i < len {
  3a:	980f      	ldr	r0, [sp, #60]	; 0x3c
  3c:	990d      	ldr	r1, [sp, #52]	; 0x34
  3e:	4288      	cmp	r0, r1
  40:	d335      	bcc.n	ae <_ZN4core3ptr25swap_nonoverlapping_bytes17h962f9a3c83b0542aE+0xae>
  42:	e033      	b.n	ac <_ZN4core3ptr25swap_nonoverlapping_bytes17h962f9a3c83b0542aE+0xac>
/home/breetai/.rustup/toolchains/nightly-x86_64-unknown-linux-gnu/lib/rustlib/src/rust/src/libcore/ptr/mod.rs:461
        let mut t = mem::MaybeUninit::<Block>::uninit();
  44:	e7ff      	b.n	46 <_ZN4core3ptr25swap_nonoverlapping_bytes17h962f9a3c83b0542aE+0x46>
  46:	a810      	add	r0, sp, #64	; 0x40
  48:	9032      	str	r0, [sp, #200]	; 0xc8
  4a:	9033      	str	r0, [sp, #204]	; 0xcc
/home/breetai/.rustup/toolchains/nightly-x86_64-unknown-linux-gnu/lib/rustlib/src/rust/src/libcore/ptr/mod.rs:462
        let t = t.as_mut_ptr() as *mut u8;
  4c:	e7ff      	b.n	4e <_ZN4core3ptr25swap_nonoverlapping_bytes17h962f9a3c83b0542aE+0x4e>
  4e:	a810      	add	r0, sp, #64	; 0x40
  50:	4601      	mov	r1, r0
  52:	9028      	str	r0, [sp, #160]	; 0xa0
/home/breetai/.rustup/toolchains/nightly-x86_64-unknown-linux-gnu/lib/rustlib/src/rust/src/libcore/ptr/mod.rs:463
        let x = x.add(i);
  54:	980f      	ldr	r0, [sp, #60]	; 0x3c
  56:	9a0b      	ldr	r2, [sp, #44]	; 0x2c
  58:	9009      	str	r0, [sp, #36]	; 0x24
  5a:	4610      	mov	r0, r2
  5c:	9b09      	ldr	r3, [sp, #36]	; 0x24
  5e:	9108      	str	r1, [sp, #32]
  60:	4619      	mov	r1, r3
  62:	f7ff fffe 	bl	0 <_ZN4core3ptr7mut_ptr31_$LT$impl$u20$$BP$mut$u20$T$GT$3add17hf1110806025a778fE>
  66:	4601      	mov	r1, r0
  68:	9029      	str	r0, [sp, #164]	; 0xa4
  6a:	9107      	str	r1, [sp, #28]
  6c:	e7ff      	b.n	6e <_ZN4core3ptr25swap_nonoverlapping_bytes17h962f9a3c83b0542aE+0x6e>
/home/breetai/.rustup/toolchains/nightly-x86_64-unknown-linux-gnu/lib/rustlib/src/rust/src/libcore/ptr/mod.rs:464
        let y = y.add(i);
  6e:	990f      	ldr	r1, [sp, #60]	; 0x3c
  70:	980c      	ldr	r0, [sp, #48]	; 0x30
  72:	f7ff fffe 	bl	0 <_ZN4core3ptr7mut_ptr31_$LT$impl$u20$$BP$mut$u20$T$GT$3add17hf1110806025a778fE>
  76:	4601      	mov	r1, r0
  78:	902a      	str	r0, [sp, #168]	; 0xa8
  7a:	9106      	str	r1, [sp, #24]
  7c:	e7ff      	b.n	7e <_ZN4core3ptr25swap_nonoverlapping_bytes17h962f9a3c83b0542aE+0x7e>
/home/breetai/.rustup/toolchains/nightly-x86_64-unknown-linux-gnu/lib/rustlib/src/rust/src/libcore/ptr/mod.rs:468
        copy_nonoverlapping(x, t, block_size);
  7e:	9807      	ldr	r0, [sp, #28]
  80:	9908      	ldr	r1, [sp, #32]
  82:	9a0a      	ldr	r2, [sp, #40]	; 0x28
  84:	f7ff fffe 	bl	0 <_ZN4core10intrinsics19copy_nonoverlapping17h8ac670e88845f6b2E>
  88:	e7ff      	b.n	8a <_ZN4core3ptr25swap_nonoverlapping_bytes17h962f9a3c83b0542aE+0x8a>
/home/breetai/.rustup/toolchains/nightly-x86_64-unknown-linux-gnu/lib/rustlib/src/rust/src/libcore/ptr/mod.rs:469
        copy_nonoverlapping(y, x, block_size);
  8a:	9806      	ldr	r0, [sp, #24]
  8c:	9907      	ldr	r1, [sp, #28]
  8e:	9a0a      	ldr	r2, [sp, #40]	; 0x28
  90:	f7ff fffe 	bl	0 <_ZN4core10intrinsics19copy_nonoverlapping17h8ac670e88845f6b2E>
  94:	e7ff      	b.n	96 <_ZN4core3ptr25swap_nonoverlapping_bytes17h962f9a3c83b0542aE+0x96>
/home/breetai/.rustup/toolchains/nightly-x86_64-unknown-linux-gnu/lib/rustlib/src/rust/src/libcore/ptr/mod.rs:470
        copy_nonoverlapping(t, y, block_size);
  96:	9808      	ldr	r0, [sp, #32]
  98:	9906      	ldr	r1, [sp, #24]
  9a:	9a0a      	ldr	r2, [sp, #40]	; 0x28
  9c:	f7ff fffe 	bl	0 <_ZN4core10intrinsics19copy_nonoverlapping17h8ac670e88845f6b2E>
  a0:	e7ff      	b.n	a2 <_ZN4core3ptr25swap_nonoverlapping_bytes17h962f9a3c83b0542aE+0xa2>
/home/breetai/.rustup/toolchains/nightly-x86_64-unknown-linux-gnu/lib/rustlib/src/rust/src/libcore/ptr/mod.rs:471
        i += block_size;
  a2:	980f      	ldr	r0, [sp, #60]	; 0x3c
  a4:	990a      	ldr	r1, [sp, #40]	; 0x28
  a6:	4408      	add	r0, r1
  a8:	900f      	str	r0, [sp, #60]	; 0x3c
/home/breetai/.rustup/toolchains/nightly-x86_64-unknown-linux-gnu/lib/rustlib/src/rust/src/libcore/ptr/mod.rs:458
    while i + block_size <= len {
  aa:	e7bf      	b.n	2c <_ZN4core3ptr25swap_nonoverlapping_bytes17h962f9a3c83b0542aE+0x2c>
/home/breetai/.rustup/toolchains/nightly-x86_64-unknown-linux-gnu/lib/rustlib/src/rust/src/libcore/ptr/mod.rs:474
    if i < len {
  ac:	e033      	b.n	116 <_ZN4core3ptr25swap_nonoverlapping_bytes17h962f9a3c83b0542aE+0x116>
/home/breetai/.rustup/toolchains/nightly-x86_64-unknown-linux-gnu/lib/rustlib/src/rust/src/libcore/ptr/mod.rs:476
        let mut t = mem::MaybeUninit::<UnalignedBlock>::uninit();
  ae:	e7ff      	b.n	b0 <_ZN4core3ptr25swap_nonoverlapping_bytes17h962f9a3c83b0542aE+0xb0>
/home/breetai/.rustup/toolchains/nightly-x86_64-unknown-linux-gnu/lib/rustlib/src/rust/src/libcore/ptr/mod.rs:477
        let rem = len - i;
  b0:	980f      	ldr	r0, [sp, #60]	; 0x3c
  b2:	990d      	ldr	r1, [sp, #52]	; 0x34
  b4:	1a08      	subs	r0, r1, r0
  b6:	4602      	mov	r2, r0
  b8:	902b      	str	r0, [sp, #172]	; 0xac
  ba:	a81c      	add	r0, sp, #112	; 0x70
  bc:	9030      	str	r0, [sp, #192]	; 0xc0
  be:	9031      	str	r0, [sp, #196]	; 0xc4
/home/breetai/.rustup/toolchains/nightly-x86_64-unknown-linux-gnu/lib/rustlib/src/rust/src/libcore/ptr/mod.rs:479
        let t = t.as_mut_ptr() as *mut u8;
  c0:	9205      	str	r2, [sp, #20]
  c2:	9004      	str	r0, [sp, #16]
  c4:	e7ff      	b.n	c6 <_ZN4core3ptr25swap_nonoverlapping_bytes17h962f9a3c83b0542aE+0xc6>
  c6:	9804      	ldr	r0, [sp, #16]
  c8:	9904      	ldr	r1, [sp, #16]
  ca:	912c      	str	r1, [sp, #176]	; 0xb0
/home/breetai/.rustup/toolchains/nightly-x86_64-unknown-linux-gnu/lib/rustlib/src/rust/src/libcore/ptr/mod.rs:480
        let x = x.add(i);
  cc:	990f      	ldr	r1, [sp, #60]	; 0x3c
  ce:	9a0b      	ldr	r2, [sp, #44]	; 0x2c
  d0:	9003      	str	r0, [sp, #12]
  d2:	4610      	mov	r0, r2
  d4:	f7ff fffe 	bl	0 <_ZN4core3ptr7mut_ptr31_$LT$impl$u20$$BP$mut$u20$T$GT$3add17hf1110806025a778fE>
  d8:	4601      	mov	r1, r0
  da:	902d      	str	r0, [sp, #180]	; 0xb4
  dc:	9102      	str	r1, [sp, #8]
  de:	e7ff      	b.n	e0 <_ZN4core3ptr25swap_nonoverlapping_bytes17h962f9a3c83b0542aE+0xe0>
/home/breetai/.rustup/toolchains/nightly-x86_64-unknown-linux-gnu/lib/rustlib/src/rust/src/libcore/ptr/mod.rs:481
        let y = y.add(i);
  e0:	990f      	ldr	r1, [sp, #60]	; 0x3c
  e2:	980c      	ldr	r0, [sp, #48]	; 0x30
  e4:	f7ff fffe 	bl	0 <_ZN4core3ptr7mut_ptr31_$LT$impl$u20$$BP$mut$u20$T$GT$3add17hf1110806025a778fE>
  e8:	4601      	mov	r1, r0
  ea:	902e      	str	r0, [sp, #184]	; 0xb8
  ec:	9101      	str	r1, [sp, #4]
  ee:	e7ff      	b.n	f0 <_ZN4core3ptr25swap_nonoverlapping_bytes17h962f9a3c83b0542aE+0xf0>
/home/breetai/.rustup/toolchains/nightly-x86_64-unknown-linux-gnu/lib/rustlib/src/rust/src/libcore/ptr/mod.rs:483
        copy_nonoverlapping(x, t, rem);
  f0:	9802      	ldr	r0, [sp, #8]
  f2:	9903      	ldr	r1, [sp, #12]
  f4:	9a05      	ldr	r2, [sp, #20]
  f6:	f7ff fffe 	bl	0 <_ZN4core10intrinsics19copy_nonoverlapping17h8ac670e88845f6b2E>
  fa:	e7ff      	b.n	fc <_ZN4core3ptr25swap_nonoverlapping_bytes17h962f9a3c83b0542aE+0xfc>
/home/breetai/.rustup/toolchains/nightly-x86_64-unknown-linux-gnu/lib/rustlib/src/rust/src/libcore/ptr/mod.rs:484
        copy_nonoverlapping(y, x, rem);
  fc:	9801      	ldr	r0, [sp, #4]
  fe:	9902      	ldr	r1, [sp, #8]
 100:	9a05      	ldr	r2, [sp, #20]
 102:	f7ff fffe 	bl	0 <_ZN4core10intrinsics19copy_nonoverlapping17h8ac670e88845f6b2E>
 106:	e7ff      	b.n	108 <_ZN4core3ptr25swap_nonoverlapping_bytes17h962f9a3c83b0542aE+0x108>
/home/breetai/.rustup/toolchains/nightly-x86_64-unknown-linux-gnu/lib/rustlib/src/rust/src/libcore/ptr/mod.rs:485
        copy_nonoverlapping(t, y, rem);
 108:	9803      	ldr	r0, [sp, #12]
 10a:	9901      	ldr	r1, [sp, #4]
 10c:	9a05      	ldr	r2, [sp, #20]
 10e:	f7ff fffe 	bl	0 <_ZN4core10intrinsics19copy_nonoverlapping17h8ac670e88845f6b2E>
 112:	e7ff      	b.n	114 <_ZN4core3ptr25swap_nonoverlapping_bytes17h962f9a3c83b0542aE+0x114>
/home/breetai/.rustup/toolchains/nightly-x86_64-unknown-linux-gnu/lib/rustlib/src/rust/src/libcore/ptr/mod.rs:474
    if i < len {
 114:	e7ff      	b.n	116 <_ZN4core3ptr25swap_nonoverlapping_bytes17h962f9a3c83b0542aE+0x116>
/home/breetai/.rustup/toolchains/nightly-x86_64-unknown-linux-gnu/lib/rustlib/src/rust/src/libcore/ptr/mod.rs:487
}
 116:	f1a7 0408 	sub.w	r4, r7, #8
 11a:	46a5      	mov	sp, r4
 11c:	bdd0      	pop	{r4, r6, r7, pc}

Disassembly of section .text._ZN4core3ptr4read17h09d0ff5656a6efaeE:

00000000 <_ZN4core3ptr4read17h09d0ff5656a6efaeE>:
_ZN4core3ptr4read17h09d0ff5656a6efaeE():
/home/breetai/.rustup/toolchains/nightly-x86_64-unknown-linux-gnu/lib/rustlib/src/rust/src/libcore/ptr/mod.rs:647
pub unsafe fn read<T>(src: *const T) -> T {
   0:	b580      	push	{r7, lr}
   2:	466f      	mov	r7, sp
   4:	b088      	sub	sp, #32
   6:	9003      	str	r0, [sp, #12]
_ZN4core3mem12maybe_uninit20MaybeUninit$LT$T$GT$6uninit17h6eb160d22dcaebfcE():
/home/breetai/.rustup/toolchains/nightly-x86_64-unknown-linux-gnu/lib/rustlib/src/rust/src/libcore/mem/maybe_uninit.rs:273
    #[rustc_const_stable(feature = "const_maybe_uninit", since = "1.36.0")]
    #[inline(always)]
    #[rustc_diagnostic_item = "maybe_uninit_uninit"]
    pub const fn uninit() -> MaybeUninit<T> {
        MaybeUninit { uninit: () }
    }
   8:	f837 1c0e 	ldrh.w	r1, [r7, #-14]
_ZN4core3ptr4read17h09d0ff5656a6efaeE():
/home/breetai/.rustup/toolchains/nightly-x86_64-unknown-linux-gnu/lib/rustlib/src/rust/src/libcore/ptr/mod.rs:649
    let mut tmp = MaybeUninit::<T>::uninit();
   c:	f827 1c16 	strh.w	r1, [r7, #-22]
  10:	9001      	str	r0, [sp, #4]
  12:	e7ff      	b.n	14 <_ZN4core3ptr4read17h09d0ff5656a6efaeE+0x14>
  14:	f1a7 0016 	sub.w	r0, r7, #22
  18:	9006      	str	r0, [sp, #24]
  1a:	9007      	str	r0, [sp, #28]
/home/breetai/.rustup/toolchains/nightly-x86_64-unknown-linux-gnu/lib/rustlib/src/rust/src/libcore/ptr/mod.rs:650
    copy_nonoverlapping(src, tmp.as_mut_ptr(), 1);
  1c:	e7ff      	b.n	1e <_ZN4core3ptr4read17h09d0ff5656a6efaeE+0x1e>
  1e:	f1a7 0116 	sub.w	r1, r7, #22
  22:	2201      	movs	r2, #1
  24:	9801      	ldr	r0, [sp, #4]
  26:	f7ff fffe 	bl	0 <_ZN4core10intrinsics19copy_nonoverlapping17h4c48cebe1c6e607dE>
  2a:	e7ff      	b.n	2c <_ZN4core3ptr4read17h09d0ff5656a6efaeE+0x2c>
/home/breetai/.rustup/toolchains/nightly-x86_64-unknown-linux-gnu/lib/rustlib/src/rust/src/libcore/ptr/mod.rs:651
    tmp.assume_init()
  2c:	f837 0c16 	ldrh.w	r0, [r7, #-22]
  30:	4601      	mov	r1, r0
  32:	f8ad 0014 	strh.w	r0, [sp, #20]
  36:	f827 0c0a 	strh.w	r0, [r7, #-10]
  3a:	9100      	str	r1, [sp, #0]
  3c:	e7ff      	b.n	3e <_ZN4core3ptr4read17h09d0ff5656a6efaeE+0x3e>
/home/breetai/.rustup/toolchains/nightly-x86_64-unknown-linux-gnu/lib/rustlib/src/rust/src/libcore/ptr/mod.rs:652
}
  3e:	9800      	ldr	r0, [sp, #0]
  40:	b008      	add	sp, #32
  42:	bd80      	pop	{r7, pc}

Disassembly of section .text._ZN4core3ptr4read17h763f94988a1a535bE:

00000000 <_ZN4core3ptr4read17h763f94988a1a535bE>:
_ZN4core3ptr4read17h763f94988a1a535bE():
/home/breetai/.rustup/toolchains/nightly-x86_64-unknown-linux-gnu/lib/rustlib/src/rust/src/libcore/ptr/mod.rs:647
pub unsafe fn read<T>(src: *const T) -> T {
   0:	b580      	push	{r7, lr}
   2:	466f      	mov	r7, sp
   4:	b08a      	sub	sp, #40	; 0x28
   6:	9004      	str	r0, [sp, #16]
_ZN4core3mem12maybe_uninit20MaybeUninit$LT$T$GT$6uninit17h26bf29e5a6debde1E():
/home/breetai/.rustup/toolchains/nightly-x86_64-unknown-linux-gnu/lib/rustlib/src/rust/src/libcore/mem/maybe_uninit.rs:273
   8:	9905      	ldr	r1, [sp, #20]
_ZN4core3ptr4read17h763f94988a1a535bE():
/home/breetai/.rustup/toolchains/nightly-x86_64-unknown-linux-gnu/lib/rustlib/src/rust/src/libcore/ptr/mod.rs:649
    let mut tmp = MaybeUninit::<T>::uninit();
   a:	9103      	str	r1, [sp, #12]
   c:	9002      	str	r0, [sp, #8]
   e:	e7ff      	b.n	10 <_ZN4core3ptr4read17h763f94988a1a535bE+0x10>
  10:	a803      	add	r0, sp, #12
  12:	9008      	str	r0, [sp, #32]
  14:	9009      	str	r0, [sp, #36]	; 0x24
/home/breetai/.rustup/toolchains/nightly-x86_64-unknown-linux-gnu/lib/rustlib/src/rust/src/libcore/ptr/mod.rs:650
    copy_nonoverlapping(src, tmp.as_mut_ptr(), 1);
  16:	e7ff      	b.n	18 <_ZN4core3ptr4read17h763f94988a1a535bE+0x18>
  18:	a903      	add	r1, sp, #12
  1a:	2201      	movs	r2, #1
  1c:	9802      	ldr	r0, [sp, #8]
  1e:	f7ff fffe 	bl	0 <_ZN4core10intrinsics19copy_nonoverlapping17h0dbbcbab8fa7fb32E>
  22:	e7ff      	b.n	24 <_ZN4core3ptr4read17h763f94988a1a535bE+0x24>
/home/breetai/.rustup/toolchains/nightly-x86_64-unknown-linux-gnu/lib/rustlib/src/rust/src/libcore/ptr/mod.rs:651
    tmp.assume_init()
  24:	9803      	ldr	r0, [sp, #12]
  26:	9006      	str	r0, [sp, #24]
  28:	9007      	str	r0, [sp, #28]
  2a:	9001      	str	r0, [sp, #4]
  2c:	e7ff      	b.n	2e <_ZN4core3ptr4read17h763f94988a1a535bE+0x2e>
/home/breetai/.rustup/toolchains/nightly-x86_64-unknown-linux-gnu/lib/rustlib/src/rust/src/libcore/ptr/mod.rs:652
}
  2e:	9801      	ldr	r0, [sp, #4]
  30:	b00a      	add	sp, #40	; 0x28
  32:	bd80      	pop	{r7, pc}

Disassembly of section .text._ZN4core3ptr4read17hd27590e973e13d30E:

00000000 <_ZN4core3ptr4read17hd27590e973e13d30E>:
_ZN4core3ptr4read17hd27590e973e13d30E():
/home/breetai/.rustup/toolchains/nightly-x86_64-unknown-linux-gnu/lib/rustlib/src/rust/src/libcore/ptr/mod.rs:647
pub unsafe fn read<T>(src: *const T) -> T {
   0:	b580      	push	{r7, lr}
   2:	466f      	mov	r7, sp
   4:	b08a      	sub	sp, #40	; 0x28
   6:	9004      	str	r0, [sp, #16]
_ZN4core3mem12maybe_uninit20MaybeUninit$LT$T$GT$6uninit17h020c57dcef1738afE():
/home/breetai/.rustup/toolchains/nightly-x86_64-unknown-linux-gnu/lib/rustlib/src/rust/src/libcore/mem/maybe_uninit.rs:273
   8:	9905      	ldr	r1, [sp, #20]
_ZN4core3ptr4read17hd27590e973e13d30E():
/home/breetai/.rustup/toolchains/nightly-x86_64-unknown-linux-gnu/lib/rustlib/src/rust/src/libcore/ptr/mod.rs:649
    let mut tmp = MaybeUninit::<T>::uninit();
   a:	9103      	str	r1, [sp, #12]
   c:	9002      	str	r0, [sp, #8]
   e:	e7ff      	b.n	10 <_ZN4core3ptr4read17hd27590e973e13d30E+0x10>
  10:	a803      	add	r0, sp, #12
  12:	9008      	str	r0, [sp, #32]
  14:	9009      	str	r0, [sp, #36]	; 0x24
/home/breetai/.rustup/toolchains/nightly-x86_64-unknown-linux-gnu/lib/rustlib/src/rust/src/libcore/ptr/mod.rs:650
    copy_nonoverlapping(src, tmp.as_mut_ptr(), 1);
  16:	e7ff      	b.n	18 <_ZN4core3ptr4read17hd27590e973e13d30E+0x18>
  18:	a903      	add	r1, sp, #12
  1a:	2201      	movs	r2, #1
  1c:	9802      	ldr	r0, [sp, #8]
  1e:	f7ff fffe 	bl	0 <_ZN4core10intrinsics19copy_nonoverlapping17hb13b2bcb2bec2bffE>
  22:	e7ff      	b.n	24 <_ZN4core3ptr4read17hd27590e973e13d30E+0x24>
/home/breetai/.rustup/toolchains/nightly-x86_64-unknown-linux-gnu/lib/rustlib/src/rust/src/libcore/ptr/mod.rs:651
    tmp.assume_init()
  24:	9803      	ldr	r0, [sp, #12]
  26:	9006      	str	r0, [sp, #24]
  28:	9007      	str	r0, [sp, #28]
  2a:	9001      	str	r0, [sp, #4]
  2c:	e7ff      	b.n	2e <_ZN4core3ptr4read17hd27590e973e13d30E+0x2e>
/home/breetai/.rustup/toolchains/nightly-x86_64-unknown-linux-gnu/lib/rustlib/src/rust/src/libcore/ptr/mod.rs:652
}
  2e:	9801      	ldr	r0, [sp, #4]
  30:	b00a      	add	sp, #40	; 0x28
  32:	bd80      	pop	{r7, pc}

Disassembly of section .text._ZN4core3ptr5write17h8a8ca17b06e34396E:

00000000 <_ZN4core3ptr5write17h8a8ca17b06e34396E>:
_ZN4core3ptr5write17h8a8ca17b06e34396E():
/home/breetai/.rustup/toolchains/nightly-x86_64-unknown-linux-gnu/lib/rustlib/src/rust/src/libcore/ptr/mod.rs:834
pub unsafe fn write<T>(dst: *mut T, src: T) {
   0:	b083      	sub	sp, #12
   2:	9001      	str	r0, [sp, #4]
   4:	9102      	str	r1, [sp, #8]
/home/breetai/.rustup/toolchains/nightly-x86_64-unknown-linux-gnu/lib/rustlib/src/rust/src/libcore/ptr/mod.rs:836
    intrinsics::move_val_init(&mut *dst, src)
   6:	6001      	str	r1, [r0, #0]
/home/breetai/.rustup/toolchains/nightly-x86_64-unknown-linux-gnu/lib/rustlib/src/rust/src/libcore/ptr/mod.rs:837
}
   8:	b003      	add	sp, #12
   a:	4770      	bx	lr

cortex_m-bde398208d4285f9.cortex_m.9i9xlcl7-cgu.10.rcgu.o:     file format elf32-littlearm

SYMBOL TABLE:
00000000 l    df *ABS*	00000000 cortex_m.9i9xlcl7-cgu.10
00000000 l       .debug_str	00000000 
00000041 l       .debug_str	00000000 
00000099 l       .debug_str	00000000 
000000e6 l       .debug_str	00000000 
000000eb l       .debug_str	00000000 
000000f2 l       .debug_str	00000000 
000000f5 l       .debug_str	00000000 
000000f8 l       .debug_str	00000000 
000000fc l       .debug_str	00000000 
00000103 l       .debug_str	00000000 
00000107 l       .debug_str	00000000 
0000010a l       .debug_str	00000000 
0000010d l       .debug_str	00000000 
00000112 l       .debug_str	00000000 
00000118 l       .debug_str	00000000 
0000011f l       .debug_str	00000000 
00000127 l       .debug_str	00000000 
00000131 l       .debug_str	00000000 
0000013a l       .debug_str	00000000 
0000013e l       .debug_str	00000000 
00000148 l       .debug_str	00000000 
0000014c l       .debug_str	00000000 
0000014e l       .debug_str	00000000 
00000196 l       .debug_str	00000000 
0000019f l       .debug_str	00000000 
000001e7 l       .debug_str	00000000 
000001ef l       .debug_str	00000000 
00000241 l       .debug_str	00000000 
00000249 l       .debug_str	00000000 
00000253 l       .debug_str	00000000 
000002a8 l       .debug_str	00000000 
000002b4 l       .debug_str	00000000 
000002bf l       .debug_str	00000000 
00000314 l       .debug_str	00000000 
0000031f l       .debug_str	00000000 
00000324 l       .debug_str	00000000 
00000329 l       .debug_str	00000000 
0000032f l       .debug_str	00000000 
00000331 l       .debug_str	00000000 
00000337 l       .debug_str	00000000 
0000033c l       .debug_str	00000000 
00000341 l       .debug_str	00000000 
00000347 l       .debug_str	00000000 
0000034d l       .debug_str	00000000 
00000354 l       .debug_str	00000000 
00000359 l       .debug_str	00000000 
0000035f l       .debug_str	00000000 
00000364 l       .debug_str	00000000 
00000368 l       .debug_str	00000000 
00000376 l       .debug_str	00000000 
00000380 l       .debug_str	00000000 
00000384 l       .debug_str	00000000 
0000038c l       .debug_str	00000000 
00000394 l       .debug_str	00000000 
0000039b l       .debug_str	00000000 
000003af l       .debug_str	00000000 
000003bb l       .debug_str	00000000 
000003c6 l       .debug_str	00000000 
000003d0 l       .debug_str	00000000 
000003ea l       .debug_str	00000000 
000003ee l       .debug_str	00000000 
000003f3 l       .debug_str	00000000 
000003f9 l       .debug_str	00000000 
00000000 l    d  .text._ZN42_$LT$$RF$T$u20$as$u20$core..fmt..Debug$GT$3fmt17h039dd7b17fd5a3c9E	00000000 .text._ZN42_$LT$$RF$T$u20$as$u20$core..fmt..Debug$GT$3fmt17h039dd7b17fd5a3c9E
00000000 l    d  .text._ZN42_$LT$$RF$T$u20$as$u20$core..fmt..Debug$GT$3fmt17h3a7cb2e5dd6e07b8E	00000000 .text._ZN42_$LT$$RF$T$u20$as$u20$core..fmt..Debug$GT$3fmt17h3a7cb2e5dd6e07b8E
00000000 l    d  .text._ZN4core3ptr9const_ptr33_$LT$impl$u20$$BP$const$u20$T$GT$3add17h1a42d795a04a8f32E	00000000 .text._ZN4core3ptr9const_ptr33_$LT$impl$u20$$BP$const$u20$T$GT$3add17h1a42d795a04a8f32E
00000000 l    d  .text._ZN4core3ptr9const_ptr33_$LT$impl$u20$$BP$const$u20$T$GT$6offset17ha1a240ef10288ba6E	00000000 .text._ZN4core3ptr9const_ptr33_$LT$impl$u20$$BP$const$u20$T$GT$6offset17ha1a240ef10288ba6E
00000000 l    d  .text._ZN4core3ptr9const_ptr33_$LT$impl$u20$$BP$const$u20$T$GT$6offset17hb09bcd71891303c0E	00000000 .text._ZN4core3ptr9const_ptr33_$LT$impl$u20$$BP$const$u20$T$GT$6offset17hb09bcd71891303c0E
00000000 l    d  .debug_abbrev	00000000 .debug_abbrev
00000000 l    d  .debug_info	00000000 .debug_info
00000000 l    d  .debug_ranges	00000000 .debug_ranges
00000000 l    d  .debug_frame	00000000 .debug_frame
00000000 l    d  .debug_line	00000000 .debug_line
00000000 g     F .text._ZN42_$LT$$RF$T$u20$as$u20$core..fmt..Debug$GT$3fmt17h039dd7b17fd5a3c9E	0000001e _ZN42_$LT$$RF$T$u20$as$u20$core..fmt..Debug$GT$3fmt17h039dd7b17fd5a3c9E
00000000 g     F .text._ZN42_$LT$$RF$T$u20$as$u20$core..fmt..Debug$GT$3fmt17h3a7cb2e5dd6e07b8E	0000001e _ZN42_$LT$$RF$T$u20$as$u20$core..fmt..Debug$GT$3fmt17h3a7cb2e5dd6e07b8E
00000000         *UND*	00000000 .hidden _ZN4core3fmt3num49_$LT$impl$u20$core..fmt..Debug$u20$for$u20$u8$GT$3fmt17hf89d59e18bd4120fE
00000000         *UND*	00000000 .hidden _ZN4core3fmt3num50_$LT$impl$u20$core..fmt..Debug$u20$for$u20$u32$GT$3fmt17h67e73c1f1fc621c7E
00000000 g     F .text._ZN4core3ptr9const_ptr33_$LT$impl$u20$$BP$const$u20$T$GT$3add17h1a42d795a04a8f32E	00000018 _ZN4core3ptr9const_ptr33_$LT$impl$u20$$BP$const$u20$T$GT$3add17h1a42d795a04a8f32E
00000000 g     F .text._ZN4core3ptr9const_ptr33_$LT$impl$u20$$BP$const$u20$T$GT$6offset17ha1a240ef10288ba6E	00000018 _ZN4core3ptr9const_ptr33_$LT$impl$u20$$BP$const$u20$T$GT$6offset17ha1a240ef10288ba6E
00000000 g     F .text._ZN4core3ptr9const_ptr33_$LT$impl$u20$$BP$const$u20$T$GT$6offset17hb09bcd71891303c0E	00000016 _ZN4core3ptr9const_ptr33_$LT$impl$u20$$BP$const$u20$T$GT$6offset17hb09bcd71891303c0E



Disassembly of section .text._ZN42_$LT$$RF$T$u20$as$u20$core..fmt..Debug$GT$3fmt17h039dd7b17fd5a3c9E:

00000000 <_ZN42_$LT$$RF$T$u20$as$u20$core..fmt..Debug$GT$3fmt17h039dd7b17fd5a3c9E>:
_ZN42_$LT$$RF$T$u20$as$u20$core..fmt..Debug$GT$3fmt17h039dd7b17fd5a3c9E():
/home/breetai/.rustup/toolchains/nightly-x86_64-unknown-linux-gnu/lib/rustlib/src/rust/src/libcore/fmt/mod.rs:1973
macro_rules! fmt_refs {
    ($($tr:ident),*) => {
        $(
        #[stable(feature = "rust1", since = "1.0.0")]
        impl<T: ?Sized + $tr> $tr for &T {
            fn fmt(&self, f: &mut Formatter<'_>) -> Result { $tr::fmt(&**self, f) }
   0:	b580      	push	{r7, lr}
   2:	466f      	mov	r7, sp
   4:	b084      	sub	sp, #16
   6:	9002      	str	r0, [sp, #8]
   8:	9103      	str	r1, [sp, #12]
   a:	6800      	ldr	r0, [r0, #0]
   c:	f7ff fffe 	bl	0 <_ZN4core3fmt3num50_$LT$impl$u20$core..fmt..Debug$u20$for$u20$u32$GT$3fmt17h67e73c1f1fc621c7E>
  10:	9001      	str	r0, [sp, #4]
  12:	e7ff      	b.n	14 <_ZN42_$LT$$RF$T$u20$as$u20$core..fmt..Debug$GT$3fmt17h039dd7b17fd5a3c9E+0x14>
  14:	9801      	ldr	r0, [sp, #4]
  16:	f000 0001 	and.w	r0, r0, #1
  1a:	b004      	add	sp, #16
  1c:	bd80      	pop	{r7, pc}

Disassembly of section .text._ZN42_$LT$$RF$T$u20$as$u20$core..fmt..Debug$GT$3fmt17h3a7cb2e5dd6e07b8E:

00000000 <_ZN42_$LT$$RF$T$u20$as$u20$core..fmt..Debug$GT$3fmt17h3a7cb2e5dd6e07b8E>:
_ZN42_$LT$$RF$T$u20$as$u20$core..fmt..Debug$GT$3fmt17h3a7cb2e5dd6e07b8E():
/home/breetai/.rustup/toolchains/nightly-x86_64-unknown-linux-gnu/lib/rustlib/src/rust/src/libcore/fmt/mod.rs:1973
   0:	b580      	push	{r7, lr}
   2:	466f      	mov	r7, sp
   4:	b084      	sub	sp, #16
   6:	9002      	str	r0, [sp, #8]
   8:	9103      	str	r1, [sp, #12]
   a:	6800      	ldr	r0, [r0, #0]
   c:	f7ff fffe 	bl	0 <_ZN4core3fmt3num49_$LT$impl$u20$core..fmt..Debug$u20$for$u20$u8$GT$3fmt17hf89d59e18bd4120fE>
  10:	9001      	str	r0, [sp, #4]
  12:	e7ff      	b.n	14 <_ZN42_$LT$$RF$T$u20$as$u20$core..fmt..Debug$GT$3fmt17h3a7cb2e5dd6e07b8E+0x14>
  14:	9801      	ldr	r0, [sp, #4]
  16:	f000 0001 	and.w	r0, r0, #1
  1a:	b004      	add	sp, #16
  1c:	bd80      	pop	{r7, pc}

Disassembly of section .text._ZN4core3ptr9const_ptr33_$LT$impl$u20$$BP$const$u20$T$GT$3add17h1a42d795a04a8f32E:

00000000 <_ZN4core3ptr9const_ptr33_$LT$impl$u20$$BP$const$u20$T$GT$3add17h1a42d795a04a8f32E>:
_ZN4core3ptr9const_ptr33_$LT$impl$u20$$BP$const$u20$T$GT$3add17h1a42d795a04a8f32E():
/home/breetai/.rustup/toolchains/nightly-x86_64-unknown-linux-gnu/lib/rustlib/src/rust/src/libcore/ptr/const_ptr.rs:394
    ///     println!("{}", *ptr.add(2) as char);
    /// }
    /// ```
    #[stable(feature = "pointer_methods", since = "1.26.0")]
    #[inline]
    pub unsafe fn add(self, count: usize) -> Self
   0:	b580      	push	{r7, lr}
   2:	466f      	mov	r7, sp
   4:	b084      	sub	sp, #16
   6:	9002      	str	r0, [sp, #8]
   8:	9103      	str	r1, [sp, #12]
/home/breetai/.rustup/toolchains/nightly-x86_64-unknown-linux-gnu/lib/rustlib/src/rust/src/libcore/ptr/const_ptr.rs:398
    where
        T: Sized,
    {
        self.offset(count as isize)
   a:	f7ff fffe 	bl	0 <_ZN4core3ptr9const_ptr33_$LT$impl$u20$$BP$const$u20$T$GT$3add17h1a42d795a04a8f32E>
   e:	9001      	str	r0, [sp, #4]
  10:	e7ff      	b.n	12 <_ZN4core3ptr9const_ptr33_$LT$impl$u20$$BP$const$u20$T$GT$3add17h1a42d795a04a8f32E+0x12>
/home/breetai/.rustup/toolchains/nightly-x86_64-unknown-linux-gnu/lib/rustlib/src/rust/src/libcore/ptr/const_ptr.rs:399
    }
  12:	9801      	ldr	r0, [sp, #4]
  14:	b004      	add	sp, #16
  16:	bd80      	pop	{r7, pc}

Disassembly of section .text._ZN4core3ptr9const_ptr33_$LT$impl$u20$$BP$const$u20$T$GT$6offset17ha1a240ef10288ba6E:

00000000 <_ZN4core3ptr9const_ptr33_$LT$impl$u20$$BP$const$u20$T$GT$6offset17ha1a240ef10288ba6E>:
_ZN4core3ptr9const_ptr33_$LT$impl$u20$$BP$const$u20$T$GT$6offset17ha1a240ef10288ba6E():
/home/breetai/.rustup/toolchains/nightly-x86_64-unknown-linux-gnu/lib/rustlib/src/rust/src/libcore/ptr/const_ptr.rs:154
    pub unsafe fn offset(self, count: isize) -> *const T
   0:	b084      	sub	sp, #16
   2:	9001      	str	r0, [sp, #4]
   4:	9102      	str	r1, [sp, #8]
/home/breetai/.rustup/toolchains/nightly-x86_64-unknown-linux-gnu/lib/rustlib/src/rust/src/libcore/ptr/const_ptr.rs:158
        intrinsics::offset(self, count)
   6:	eb00 0081 	add.w	r0, r0, r1, lsl #2
   a:	9003      	str	r0, [sp, #12]
   c:	9803      	ldr	r0, [sp, #12]
   e:	9000      	str	r0, [sp, #0]
  10:	e7ff      	b.n	12 <_ZN4core3ptr9const_ptr33_$LT$impl$u20$$BP$const$u20$T$GT$6offset17ha1a240ef10288ba6E+0x12>
/home/breetai/.rustup/toolchains/nightly-x86_64-unknown-linux-gnu/lib/rustlib/src/rust/src/libcore/ptr/const_ptr.rs:159
    }
  12:	9800      	ldr	r0, [sp, #0]
  14:	b004      	add	sp, #16
  16:	4770      	bx	lr

Disassembly of section .text._ZN4core3ptr9const_ptr33_$LT$impl$u20$$BP$const$u20$T$GT$6offset17hb09bcd71891303c0E:

00000000 <_ZN4core3ptr9const_ptr33_$LT$impl$u20$$BP$const$u20$T$GT$6offset17hb09bcd71891303c0E>:
_ZN4core3ptr9const_ptr33_$LT$impl$u20$$BP$const$u20$T$GT$6offset17hb09bcd71891303c0E():
/home/breetai/.rustup/toolchains/nightly-x86_64-unknown-linux-gnu/lib/rustlib/src/rust/src/libcore/ptr/const_ptr.rs:154
    pub unsafe fn offset(self, count: isize) -> *const T
   0:	b084      	sub	sp, #16
   2:	9001      	str	r0, [sp, #4]
   4:	9102      	str	r1, [sp, #8]
/home/breetai/.rustup/toolchains/nightly-x86_64-unknown-linux-gnu/lib/rustlib/src/rust/src/libcore/ptr/const_ptr.rs:158
        intrinsics::offset(self, count)
   6:	4408      	add	r0, r1
   8:	9003      	str	r0, [sp, #12]
   a:	9803      	ldr	r0, [sp, #12]
   c:	9000      	str	r0, [sp, #0]
   e:	e7ff      	b.n	10 <_ZN4core3ptr9const_ptr33_$LT$impl$u20$$BP$const$u20$T$GT$6offset17hb09bcd71891303c0E+0x10>
/home/breetai/.rustup/toolchains/nightly-x86_64-unknown-linux-gnu/lib/rustlib/src/rust/src/libcore/ptr/const_ptr.rs:159
    }
  10:	9800      	ldr	r0, [sp, #0]
  12:	b004      	add	sp, #16
  14:	4770      	bx	lr

cortex_m-bde398208d4285f9.cortex_m.9i9xlcl7-cgu.11.rcgu.o:     file format elf32-littlearm

SYMBOL TABLE:
00000000 l    df *ABS*	00000000 cortex_m.9i9xlcl7-cgu.11
00000000 l       .debug_str	00000000 
00000041 l       .debug_str	00000000 
00000099 l       .debug_str	00000000 
000000e6 l       .debug_str	00000000 
000000eb l       .debug_str	00000000 
000000f6 l       .debug_str	00000000 
000000fc l       .debug_str	00000000 
000000fe l       .debug_str	00000000 
0000013c l       .debug_str	00000000 
00000157 l       .debug_str	00000000 
0000015b l       .debug_str	00000000 
00000199 l       .debug_str	00000000 
000001b2 l       .debug_str	00000000 
000001b5 l       .debug_str	00000000 
000001f3 l       .debug_str	00000000 
0000020b l       .debug_str	00000000 
0000020f l       .debug_str	00000000 
0000024d l       .debug_str	00000000 
00000266 l       .debug_str	00000000 
0000026a l       .debug_str	00000000 
00000277 l       .debug_str	00000000 
0000027b l       .debug_str	00000000 
00000286 l       .debug_str	00000000 
0000028c l       .debug_str	00000000 
00000297 l       .debug_str	00000000 
000002a0 l       .debug_str	00000000 
000002aa l       .debug_str	00000000 
000002b2 l       .debug_str	00000000 
000002bd l       .debug_str	00000000 
00000000 l    d  .text._ZN4core10intrinsics19copy_nonoverlapping17h0dbbcbab8fa7fb32E	00000000 .text._ZN4core10intrinsics19copy_nonoverlapping17h0dbbcbab8fa7fb32E
00000000 l    d  .text._ZN4core10intrinsics19copy_nonoverlapping17h4c48cebe1c6e607dE	00000000 .text._ZN4core10intrinsics19copy_nonoverlapping17h4c48cebe1c6e607dE
00000000 l    d  .text._ZN4core10intrinsics19copy_nonoverlapping17h8ac670e88845f6b2E	00000000 .text._ZN4core10intrinsics19copy_nonoverlapping17h8ac670e88845f6b2E
00000000 l    d  .text._ZN4core10intrinsics19copy_nonoverlapping17hb13b2bcb2bec2bffE	00000000 .text._ZN4core10intrinsics19copy_nonoverlapping17hb13b2bcb2bec2bffE
00000000 l    d  .debug_abbrev	00000000 .debug_abbrev
00000000 l    d  .debug_info	00000000 .debug_info
00000000 l    d  .debug_ranges	00000000 .debug_ranges
00000000 l    d  .debug_frame	00000000 .debug_frame
00000000 l    d  .debug_line	00000000 .debug_line
00000000 g     F .text._ZN4core10intrinsics19copy_nonoverlapping17h0dbbcbab8fa7fb32E	0000001e _ZN4core10intrinsics19copy_nonoverlapping17h0dbbcbab8fa7fb32E
00000000 g     F .text._ZN4core10intrinsics19copy_nonoverlapping17h4c48cebe1c6e607dE	0000001e _ZN4core10intrinsics19copy_nonoverlapping17h4c48cebe1c6e607dE
00000000 g     F .text._ZN4core10intrinsics19copy_nonoverlapping17h8ac670e88845f6b2E	0000001c _ZN4core10intrinsics19copy_nonoverlapping17h8ac670e88845f6b2E
00000000 g     F .text._ZN4core10intrinsics19copy_nonoverlapping17hb13b2bcb2bec2bffE	0000001e _ZN4core10intrinsics19copy_nonoverlapping17hb13b2bcb2bec2bffE
00000000         *UND*	00000000 __aeabi_memcpy
00000000         *UND*	00000000 __aeabi_memcpy4



Disassembly of section .text._ZN4core10intrinsics19copy_nonoverlapping17h0dbbcbab8fa7fb32E:

00000000 <_ZN4core10intrinsics19copy_nonoverlapping17h0dbbcbab8fa7fb32E>:
_ZN4core10intrinsics19copy_nonoverlapping17h0dbbcbab8fa7fb32E():
/home/breetai/.rustup/toolchains/nightly-x86_64-unknown-linux-gnu/lib/rustlib/src/rust/src/libcore/intrinsics.rs:2050
///
/// [`Vec::append`]: ../../std/vec/struct.Vec.html#method.append
#[doc(alias = "memcpy")]
#[stable(feature = "rust1", since = "1.0.0")]
#[inline]
pub unsafe fn copy_nonoverlapping<T>(src: *const T, dst: *mut T, count: usize) {
   0:	b580      	push	{r7, lr}
   2:	466f      	mov	r7, sp
   4:	b084      	sub	sp, #16
   6:	9001      	str	r0, [sp, #4]
   8:	9102      	str	r1, [sp, #8]
   a:	9203      	str	r2, [sp, #12]
/home/breetai/.rustup/toolchains/nightly-x86_64-unknown-linux-gnu/lib/rustlib/src/rust/src/libcore/intrinsics.rs:2058
    }

    debug_assert!(is_aligned_and_not_null(src), "attempt to copy from unaligned or null pointer");
    debug_assert!(is_aligned_and_not_null(dst), "attempt to copy to unaligned or null pointer");
    debug_assert!(is_nonoverlapping(src, dst, count), "attempt to copy to overlapping memory");
    copy_nonoverlapping(src, dst, count)
   c:	0092      	lsls	r2, r2, #2
   e:	9000      	str	r0, [sp, #0]
  10:	4608      	mov	r0, r1
  12:	9900      	ldr	r1, [sp, #0]
  14:	f7ff fffe 	bl	0 <__aeabi_memcpy4>
  18:	e7ff      	b.n	1a <_ZN4core10intrinsics19copy_nonoverlapping17h0dbbcbab8fa7fb32E+0x1a>
/home/breetai/.rustup/toolchains/nightly-x86_64-unknown-linux-gnu/lib/rustlib/src/rust/src/libcore/intrinsics.rs:2059
}
  1a:	b004      	add	sp, #16
  1c:	bd80      	pop	{r7, pc}

Disassembly of section .text._ZN4core10intrinsics19copy_nonoverlapping17h4c48cebe1c6e607dE:

00000000 <_ZN4core10intrinsics19copy_nonoverlapping17h4c48cebe1c6e607dE>:
_ZN4core10intrinsics19copy_nonoverlapping17h4c48cebe1c6e607dE():
/home/breetai/.rustup/toolchains/nightly-x86_64-unknown-linux-gnu/lib/rustlib/src/rust/src/libcore/intrinsics.rs:2050
pub unsafe fn copy_nonoverlapping<T>(src: *const T, dst: *mut T, count: usize) {
   0:	b580      	push	{r7, lr}
   2:	466f      	mov	r7, sp
   4:	b084      	sub	sp, #16
   6:	9001      	str	r0, [sp, #4]
   8:	9102      	str	r1, [sp, #8]
   a:	9203      	str	r2, [sp, #12]
/home/breetai/.rustup/toolchains/nightly-x86_64-unknown-linux-gnu/lib/rustlib/src/rust/src/libcore/intrinsics.rs:2058
    copy_nonoverlapping(src, dst, count)
   c:	0052      	lsls	r2, r2, #1
   e:	9000      	str	r0, [sp, #0]
  10:	4608      	mov	r0, r1
  12:	9900      	ldr	r1, [sp, #0]
  14:	f7ff fffe 	bl	0 <__aeabi_memcpy>
  18:	e7ff      	b.n	1a <_ZN4core10intrinsics19copy_nonoverlapping17h4c48cebe1c6e607dE+0x1a>
/home/breetai/.rustup/toolchains/nightly-x86_64-unknown-linux-gnu/lib/rustlib/src/rust/src/libcore/intrinsics.rs:2059
}
  1a:	b004      	add	sp, #16
  1c:	bd80      	pop	{r7, pc}

Disassembly of section .text._ZN4core10intrinsics19copy_nonoverlapping17h8ac670e88845f6b2E:

00000000 <_ZN4core10intrinsics19copy_nonoverlapping17h8ac670e88845f6b2E>:
_ZN4core10intrinsics19copy_nonoverlapping17h8ac670e88845f6b2E():
/home/breetai/.rustup/toolchains/nightly-x86_64-unknown-linux-gnu/lib/rustlib/src/rust/src/libcore/intrinsics.rs:2050
pub unsafe fn copy_nonoverlapping<T>(src: *const T, dst: *mut T, count: usize) {
   0:	b580      	push	{r7, lr}
   2:	466f      	mov	r7, sp
   4:	b084      	sub	sp, #16
   6:	9001      	str	r0, [sp, #4]
   8:	9102      	str	r1, [sp, #8]
   a:	9203      	str	r2, [sp, #12]
/home/breetai/.rustup/toolchains/nightly-x86_64-unknown-linux-gnu/lib/rustlib/src/rust/src/libcore/intrinsics.rs:2058
    copy_nonoverlapping(src, dst, count)
   c:	9000      	str	r0, [sp, #0]
   e:	4608      	mov	r0, r1
  10:	9900      	ldr	r1, [sp, #0]
  12:	f7ff fffe 	bl	0 <__aeabi_memcpy>
  16:	e7ff      	b.n	18 <_ZN4core10intrinsics19copy_nonoverlapping17h8ac670e88845f6b2E+0x18>
/home/breetai/.rustup/toolchains/nightly-x86_64-unknown-linux-gnu/lib/rustlib/src/rust/src/libcore/intrinsics.rs:2059
}
  18:	b004      	add	sp, #16
  1a:	bd80      	pop	{r7, pc}

Disassembly of section .text._ZN4core10intrinsics19copy_nonoverlapping17hb13b2bcb2bec2bffE:

00000000 <_ZN4core10intrinsics19copy_nonoverlapping17hb13b2bcb2bec2bffE>:
_ZN4core10intrinsics19copy_nonoverlapping17hb13b2bcb2bec2bffE():
/home/breetai/.rustup/toolchains/nightly-x86_64-unknown-linux-gnu/lib/rustlib/src/rust/src/libcore/intrinsics.rs:2050
pub unsafe fn copy_nonoverlapping<T>(src: *const T, dst: *mut T, count: usize) {
   0:	b580      	push	{r7, lr}
   2:	466f      	mov	r7, sp
   4:	b084      	sub	sp, #16
   6:	9001      	str	r0, [sp, #4]
   8:	9102      	str	r1, [sp, #8]
   a:	9203      	str	r2, [sp, #12]
/home/breetai/.rustup/toolchains/nightly-x86_64-unknown-linux-gnu/lib/rustlib/src/rust/src/libcore/intrinsics.rs:2058
    copy_nonoverlapping(src, dst, count)
   c:	0092      	lsls	r2, r2, #2
   e:	9000      	str	r0, [sp, #0]
  10:	4608      	mov	r0, r1
  12:	9900      	ldr	r1, [sp, #0]
  14:	f7ff fffe 	bl	0 <__aeabi_memcpy4>
  18:	e7ff      	b.n	1a <_ZN4core10intrinsics19copy_nonoverlapping17hb13b2bcb2bec2bffE+0x1a>
/home/breetai/.rustup/toolchains/nightly-x86_64-unknown-linux-gnu/lib/rustlib/src/rust/src/libcore/intrinsics.rs:2059
}
  1a:	b004      	add	sp, #16
  1c:	bd80      	pop	{r7, pc}

cortex_m-bde398208d4285f9.cortex_m.9i9xlcl7-cgu.12.rcgu.o:     file format elf32-littlearm

SYMBOL TABLE:
00000000 l    df *ABS*	00000000 cortex_m.9i9xlcl7-cgu.12
00000000 l       .debug_str	00000000 
00000041 l       .debug_str	00000000 
00000099 l       .debug_str	00000000 
000000e6 l       .debug_str	00000000 
000000eb l       .debug_str	00000000 
000000f2 l       .debug_str	00000000 
000000f5 l       .debug_str	00000000 
000000f8 l       .debug_str	00000000 
000000fc l       .debug_str	00000000 
00000103 l       .debug_str	00000000 
0000010c l       .debug_str	00000000 
00000115 l       .debug_str	00000000 
0000011f l       .debug_str	00000000 
00000126 l       .debug_str	00000000 
0000012f l       .debug_str	00000000 
00000139 l       .debug_str	00000000 
0000013d l       .debug_str	00000000 
00000140 l       .debug_str	00000000 
00000143 l       .debug_str	00000000 
00000148 l       .debug_str	00000000 
0000014e l       .debug_str	00000000 
00000155 l       .debug_str	00000000 
0000015d l       .debug_str	00000000 
00000167 l       .debug_str	00000000 
00000170 l       .debug_str	00000000 
000001db l       .debug_str	00000000 
000001e0 l       .debug_str	00000000 
0000020a l       .debug_str	00000000 
0000020c l       .debug_str	00000000 
00000212 l       .debug_str	00000000 
00000216 l       .debug_str	00000000 
0000021b l       .debug_str	00000000 
00000220 l       .debug_str	00000000 
00000226 l       .debug_str	00000000 
0000022c l       .debug_str	00000000 
00000233 l       .debug_str	00000000 
00000238 l       .debug_str	00000000 
0000023e l       .debug_str	00000000 
00000240 l       .debug_str	00000000 
00000245 l       .debug_str	00000000 
00000249 l       .debug_str	00000000 
00000257 l       .debug_str	00000000 
00000261 l       .debug_str	00000000 
00000265 l       .debug_str	00000000 
0000026d l       .debug_str	00000000 
00000275 l       .debug_str	00000000 
0000027c l       .debug_str	00000000 
00000290 l       .debug_str	00000000 
0000029c l       .debug_str	00000000 
000002a7 l       .debug_str	00000000 
000002b1 l       .debug_str	00000000 
000002cb l       .debug_str	00000000 
000002df l       .debug_str	00000000 
000002e8 l       .debug_str	00000000 
000002ef l       .debug_str	00000000 
000002fa l       .debug_str	00000000 
000002ff l       .debug_str	00000000 
00000000 l     O .rodata.cst8	00000008 .L__unnamed_1
00000000 l     O .rodata..L__unnamed_2	00000006 .L__unnamed_2
00000000 l    d  .text._ZN77_$LT$cortex_m..register..faultmask..Faultmask$u20$as$u20$core..fmt..Debug$GT$3fmt17h2d4b4fbe66968dccE	00000000 .text._ZN77_$LT$cortex_m..register..faultmask..Faultmask$u20$as$u20$core..fmt..Debug$GT$3fmt17h2d4b4fbe66968dccE
00000000 l    d  .debug_abbrev	00000000 .debug_abbrev
00000000 l    d  .debug_info	00000000 .debug_info
00000000 l    d  .debug_frame	00000000 .debug_frame
00000000 l    d  .debug_line	00000000 .debug_line
00000000         *UND*	00000000 _ZN4core3fmt8builders10DebugTuple6finish17h9fe84bda9ef11623E
00000000         *UND*	00000000 _ZN4core3fmt9Formatter11debug_tuple17h0bae6e4b2c8fffa4E
00000000 g     F .text._ZN77_$LT$cortex_m..register..faultmask..Faultmask$u20$as$u20$core..fmt..Debug$GT$3fmt17h2d4b4fbe66968dccE	00000068 _ZN77_$LT$cortex_m..register..faultmask..Faultmask$u20$as$u20$core..fmt..Debug$GT$3fmt17h2d4b4fbe66968dccE



Disassembly of section .text._ZN77_$LT$cortex_m..register..faultmask..Faultmask$u20$as$u20$core..fmt..Debug$GT$3fmt17h2d4b4fbe66968dccE:

00000000 <_ZN77_$LT$cortex_m..register..faultmask..Faultmask$u20$as$u20$core..fmt..Debug$GT$3fmt17h2d4b4fbe66968dccE>:
_ZN77_$LT$cortex_m..register..faultmask..Faultmask$u20$as$u20$core..fmt..Debug$GT$3fmt17h2d4b4fbe66968dccE():
/home/breetai/.cargo/registry/src/github.com-1ecc6299db9ec823/cortex-m-0.6.2/src/register/faultmask.rs:5
//! Fault Mask Register

/// All exceptions are ...
#[allow(clippy::missing_inline_in_public_items)]
#[derive(Clone, Copy, Debug, Eq, PartialEq)]
   0:	b580      	push	{r7, lr}
   2:	466f      	mov	r7, sp
   4:	b08c      	sub	sp, #48	; 0x30
   6:	900a      	str	r0, [sp, #40]	; 0x28
   8:	910b      	str	r1, [sp, #44]	; 0x2c
   a:	9003      	str	r0, [sp, #12]
   c:	9803      	ldr	r0, [sp, #12]
   e:	7800      	ldrb	r0, [r0, #0]
  10:	07c2      	lsls	r2, r0, #31
  12:	2a00      	cmp	r2, #0
  14:	9101      	str	r1, [sp, #4]
  16:	d00b      	beq.n	30 <_ZN77_$LT$cortex_m..register..faultmask..Faultmask$u20$as$u20$core..fmt..Debug$GT$3fmt17h2d4b4fbe66968dccE+0x30>
  18:	e7ff      	b.n	1a <_ZN77_$LT$cortex_m..register..faultmask..Faultmask$u20$as$u20$core..fmt..Debug$GT$3fmt17h2d4b4fbe66968dccE+0x1a>
  1a:	f240 0200 	movw	r2, #0
  1e:	f2c0 0200 	movt	r2, #0
  22:	a807      	add	r0, sp, #28
  24:	2308      	movs	r3, #8
  26:	9901      	ldr	r1, [sp, #4]
  28:	f7ff fffe 	bl	0 <_ZN4core3fmt9Formatter11debug_tuple17h0bae6e4b2c8fffa4E>
  2c:	e011      	b.n	52 <_ZN77_$LT$cortex_m..register..faultmask..Faultmask$u20$as$u20$core..fmt..Debug$GT$3fmt17h2d4b4fbe66968dccE+0x52>
  2e:	defe      	udf	#254	; 0xfe
  30:	f240 0200 	movw	r2, #0
  34:	f2c0 0200 	movt	r2, #0
  38:	a804      	add	r0, sp, #16
  3a:	2306      	movs	r3, #6
  3c:	9901      	ldr	r1, [sp, #4]
  3e:	f7ff fffe 	bl	0 <_ZN4core3fmt9Formatter11debug_tuple17h0bae6e4b2c8fffa4E>
  42:	e7ff      	b.n	44 <_ZN77_$LT$cortex_m..register..faultmask..Faultmask$u20$as$u20$core..fmt..Debug$GT$3fmt17h2d4b4fbe66968dccE+0x44>
  44:	a804      	add	r0, sp, #16
  46:	f7ff fffe 	bl	0 <_ZN4core3fmt8builders10DebugTuple6finish17h9fe84bda9ef11623E>
  4a:	f807 0c25 	strb.w	r0, [r7, #-37]
  4e:	e7ff      	b.n	50 <_ZN77_$LT$cortex_m..register..faultmask..Faultmask$u20$as$u20$core..fmt..Debug$GT$3fmt17h2d4b4fbe66968dccE+0x50>
  50:	e006      	b.n	60 <_ZN77_$LT$cortex_m..register..faultmask..Faultmask$u20$as$u20$core..fmt..Debug$GT$3fmt17h2d4b4fbe66968dccE+0x60>
  52:	a807      	add	r0, sp, #28
  54:	f7ff fffe 	bl	0 <_ZN4core3fmt8builders10DebugTuple6finish17h9fe84bda9ef11623E>
  58:	f807 0c25 	strb.w	r0, [r7, #-37]
  5c:	e7ff      	b.n	5e <_ZN77_$LT$cortex_m..register..faultmask..Faultmask$u20$as$u20$core..fmt..Debug$GT$3fmt17h2d4b4fbe66968dccE+0x5e>
  5e:	e7ff      	b.n	60 <_ZN77_$LT$cortex_m..register..faultmask..Faultmask$u20$as$u20$core..fmt..Debug$GT$3fmt17h2d4b4fbe66968dccE+0x60>
  60:	f817 0c25 	ldrb.w	r0, [r7, #-37]
  64:	b00c      	add	sp, #48	; 0x30
  66:	bd80      	pop	{r7, pc}

cortex_m-bde398208d4285f9.cortex_m.9i9xlcl7-cgu.13.rcgu.o:     file format elf32-littlearm

SYMBOL TABLE:
00000000 l    df *ABS*	00000000 cortex_m.9i9xlcl7-cgu.13
00000000 l       .debug_str	00000000 
00000041 l       .debug_str	00000000 
00000099 l       .debug_str	00000000 
000000e6 l       .debug_str	00000000 
000000eb l       .debug_str	00000000 
000000f2 l       .debug_str	00000000 
000000f5 l       .debug_str	00000000 
000000f8 l       .debug_str	00000000 
000000fc l       .debug_str	00000000 
00000103 l       .debug_str	00000000 
0000010c l       .debug_str	00000000 
00000117 l       .debug_str	00000000 
0000011d l       .debug_str	00000000 
0000012b l       .debug_str	00000000 
00000137 l       .debug_str	00000000 
00000147 l       .debug_str	00000000 
0000014b l       .debug_str	00000000 
0000014e l       .debug_str	00000000 
00000151 l       .debug_str	00000000 
00000156 l       .debug_str	00000000 
0000015c l       .debug_str	00000000 
00000163 l       .debug_str	00000000 
0000016b l       .debug_str	00000000 
00000175 l       .debug_str	00000000 
0000017e l       .debug_str	00000000 
000001ed l       .debug_str	00000000 
000001f2 l       .debug_str	00000000 
00000220 l       .debug_str	00000000 
00000222 l       .debug_str	00000000 
00000228 l       .debug_str	00000000 
0000022c l       .debug_str	00000000 
00000231 l       .debug_str	00000000 
00000236 l       .debug_str	00000000 
0000023c l       .debug_str	00000000 
00000242 l       .debug_str	00000000 
00000249 l       .debug_str	00000000 
0000024e l       .debug_str	00000000 
00000254 l       .debug_str	00000000 
00000256 l       .debug_str	00000000 
0000025b l       .debug_str	00000000 
0000025f l       .debug_str	00000000 
0000026d l       .debug_str	00000000 
00000277 l       .debug_str	00000000 
0000027b l       .debug_str	00000000 
00000283 l       .debug_str	00000000 
0000028b l       .debug_str	00000000 
00000292 l       .debug_str	00000000 
000002a6 l       .debug_str	00000000 
000002b2 l       .debug_str	00000000 
000002bd l       .debug_str	00000000 
000002c7 l       .debug_str	00000000 
000002e1 l       .debug_str	00000000 
000002f5 l       .debug_str	00000000 
000002fe l       .debug_str	00000000 
00000305 l       .debug_str	00000000 
00000310 l       .debug_str	00000000 
00000315 l       .debug_str	00000000 
00000000 l     O .rodata..L__unnamed_1	0000000b .L__unnamed_1
00000000 l     O .rodata..L__unnamed_2	0000000d .L__unnamed_2
00000000 l    d  .text._ZN81_$LT$cortex_m..peripheral..cpuid..CsselrCacheType$u20$as$u20$core..fmt..Debug$GT$3fmt17hd70b0c3c7759fc40E	00000000 .text._ZN81_$LT$cortex_m..peripheral..cpuid..CsselrCacheType$u20$as$u20$core..fmt..Debug$GT$3fmt17hd70b0c3c7759fc40E
00000000 l    d  .debug_abbrev	00000000 .debug_abbrev
00000000 l    d  .debug_info	00000000 .debug_info
00000000 l    d  .debug_frame	00000000 .debug_frame
00000000 l    d  .debug_line	00000000 .debug_line
00000000         *UND*	00000000 _ZN4core3fmt8builders10DebugTuple6finish17h9fe84bda9ef11623E
00000000         *UND*	00000000 _ZN4core3fmt9Formatter11debug_tuple17h0bae6e4b2c8fffa4E
00000000 g     F .text._ZN81_$LT$cortex_m..peripheral..cpuid..CsselrCacheType$u20$as$u20$core..fmt..Debug$GT$3fmt17hd70b0c3c7759fc40E	00000068 _ZN81_$LT$cortex_m..peripheral..cpuid..CsselrCacheType$u20$as$u20$core..fmt..Debug$GT$3fmt17hd70b0c3c7759fc40E



Disassembly of section .text._ZN81_$LT$cortex_m..peripheral..cpuid..CsselrCacheType$u20$as$u20$core..fmt..Debug$GT$3fmt17hd70b0c3c7759fc40E:

00000000 <_ZN81_$LT$cortex_m..peripheral..cpuid..CsselrCacheType$u20$as$u20$core..fmt..Debug$GT$3fmt17hd70b0c3c7759fc40E>:
_ZN81_$LT$cortex_m..peripheral..cpuid..CsselrCacheType$u20$as$u20$core..fmt..Debug$GT$3fmt17hd70b0c3c7759fc40E():
/home/breetai/.cargo/registry/src/github.com-1ecc6299db9ec823/cortex-m-0.6.2/src/peripheral/cpuid.rs:70
}

/// Type of cache to select on CSSELR writes.
#[cfg(not(armv6m))]
#[allow(clippy::missing_inline_in_public_items)]
#[derive(Copy, Clone, Debug, PartialEq, Eq)]
   0:	b580      	push	{r7, lr}
   2:	466f      	mov	r7, sp
   4:	b08c      	sub	sp, #48	; 0x30
   6:	900a      	str	r0, [sp, #40]	; 0x28
   8:	910b      	str	r1, [sp, #44]	; 0x2c
   a:	9003      	str	r0, [sp, #12]
   c:	9803      	ldr	r0, [sp, #12]
   e:	7800      	ldrb	r0, [r0, #0]
  10:	07c2      	lsls	r2, r0, #31
  12:	2a00      	cmp	r2, #0
  14:	9101      	str	r1, [sp, #4]
  16:	d00b      	beq.n	30 <_ZN81_$LT$cortex_m..peripheral..cpuid..CsselrCacheType$u20$as$u20$core..fmt..Debug$GT$3fmt17hd70b0c3c7759fc40E+0x30>
  18:	e7ff      	b.n	1a <_ZN81_$LT$cortex_m..peripheral..cpuid..CsselrCacheType$u20$as$u20$core..fmt..Debug$GT$3fmt17hd70b0c3c7759fc40E+0x1a>
  1a:	f240 0200 	movw	r2, #0
  1e:	f2c0 0200 	movt	r2, #0
  22:	a807      	add	r0, sp, #28
  24:	230b      	movs	r3, #11
  26:	9901      	ldr	r1, [sp, #4]
  28:	f7ff fffe 	bl	0 <_ZN4core3fmt9Formatter11debug_tuple17h0bae6e4b2c8fffa4E>
  2c:	e011      	b.n	52 <_ZN81_$LT$cortex_m..peripheral..cpuid..CsselrCacheType$u20$as$u20$core..fmt..Debug$GT$3fmt17hd70b0c3c7759fc40E+0x52>
  2e:	defe      	udf	#254	; 0xfe
  30:	f240 0200 	movw	r2, #0
  34:	f2c0 0200 	movt	r2, #0
  38:	a804      	add	r0, sp, #16
  3a:	230d      	movs	r3, #13
  3c:	9901      	ldr	r1, [sp, #4]
  3e:	f7ff fffe 	bl	0 <_ZN4core3fmt9Formatter11debug_tuple17h0bae6e4b2c8fffa4E>
  42:	e7ff      	b.n	44 <_ZN81_$LT$cortex_m..peripheral..cpuid..CsselrCacheType$u20$as$u20$core..fmt..Debug$GT$3fmt17hd70b0c3c7759fc40E+0x44>
  44:	a804      	add	r0, sp, #16
  46:	f7ff fffe 	bl	0 <_ZN4core3fmt8builders10DebugTuple6finish17h9fe84bda9ef11623E>
  4a:	f807 0c25 	strb.w	r0, [r7, #-37]
  4e:	e7ff      	b.n	50 <_ZN81_$LT$cortex_m..peripheral..cpuid..CsselrCacheType$u20$as$u20$core..fmt..Debug$GT$3fmt17hd70b0c3c7759fc40E+0x50>
  50:	e006      	b.n	60 <_ZN81_$LT$cortex_m..peripheral..cpuid..CsselrCacheType$u20$as$u20$core..fmt..Debug$GT$3fmt17hd70b0c3c7759fc40E+0x60>
  52:	a807      	add	r0, sp, #28
  54:	f7ff fffe 	bl	0 <_ZN4core3fmt8builders10DebugTuple6finish17h9fe84bda9ef11623E>
  58:	f807 0c25 	strb.w	r0, [r7, #-37]
  5c:	e7ff      	b.n	5e <_ZN81_$LT$cortex_m..peripheral..cpuid..CsselrCacheType$u20$as$u20$core..fmt..Debug$GT$3fmt17hd70b0c3c7759fc40E+0x5e>
  5e:	e7ff      	b.n	60 <_ZN81_$LT$cortex_m..peripheral..cpuid..CsselrCacheType$u20$as$u20$core..fmt..Debug$GT$3fmt17hd70b0c3c7759fc40E+0x60>
  60:	f817 0c25 	ldrb.w	r0, [r7, #-37]
  64:	b00c      	add	sp, #48	; 0x30
  66:	bd80      	pop	{r7, pc}

cortex_m-bde398208d4285f9.cortex_m.9i9xlcl7-cgu.14.rcgu.o:     file format elf32-littlearm

SYMBOL TABLE:
00000000 l    df *ABS*	00000000 cortex_m.9i9xlcl7-cgu.14
00000000 l       .debug_str	00000000 
00000041 l       .debug_str	00000000 
00000099 l       .debug_str	00000000 
000000e6 l       .debug_str	00000000 
000000eb l       .debug_str	00000000 
000000f2 l       .debug_str	00000000 
000000f5 l       .debug_str	00000000 
000000f8 l       .debug_str	00000000 
000000fc l       .debug_str	00000000 
00000103 l       .debug_str	00000000 
0000010c l       .debug_str	00000000 
00000115 l       .debug_str	00000000 
0000011d l       .debug_str	00000000 
00000124 l       .debug_str	00000000 
0000012d l       .debug_str	00000000 
00000135 l       .debug_str	00000000 
00000139 l       .debug_str	00000000 
0000013c l       .debug_str	00000000 
0000013f l       .debug_str	00000000 
00000144 l       .debug_str	00000000 
0000014a l       .debug_str	00000000 
00000151 l       .debug_str	00000000 
00000159 l       .debug_str	00000000 
00000163 l       .debug_str	00000000 
0000016c l       .debug_str	00000000 
000001d3 l       .debug_str	00000000 
000001d8 l       .debug_str	00000000 
000001fe l       .debug_str	00000000 
00000200 l       .debug_str	00000000 
00000206 l       .debug_str	00000000 
0000020a l       .debug_str	00000000 
0000020f l       .debug_str	00000000 
00000214 l       .debug_str	00000000 
0000021a l       .debug_str	00000000 
00000220 l       .debug_str	00000000 
00000227 l       .debug_str	00000000 
0000022c l       .debug_str	00000000 
00000232 l       .debug_str	00000000 
00000234 l       .debug_str	00000000 
00000239 l       .debug_str	00000000 
0000023d l       .debug_str	00000000 
0000024b l       .debug_str	00000000 
00000255 l       .debug_str	00000000 
00000259 l       .debug_str	00000000 
00000261 l       .debug_str	00000000 
00000269 l       .debug_str	00000000 
00000270 l       .debug_str	00000000 
00000284 l       .debug_str	00000000 
00000290 l       .debug_str	00000000 
0000029b l       .debug_str	00000000 
000002a5 l       .debug_str	00000000 
000002bf l       .debug_str	00000000 
000002d3 l       .debug_str	00000000 
000002dc l       .debug_str	00000000 
000002e3 l       .debug_str	00000000 
000002ee l       .debug_str	00000000 
000002f3 l       .debug_str	00000000 
00000000 l     O .rodata.cst8	00000008 .L__unnamed_1
00000000 l     O .rodata..L__unnamed_2	00000006 .L__unnamed_2
00000000 l    d  .text._ZN73_$LT$cortex_m..register..primask..Primask$u20$as$u20$core..fmt..Debug$GT$3fmt17hc7897642fba52e17E	00000000 .text._ZN73_$LT$cortex_m..register..primask..Primask$u20$as$u20$core..fmt..Debug$GT$3fmt17hc7897642fba52e17E
00000000 l    d  .debug_abbrev	00000000 .debug_abbrev
00000000 l    d  .debug_info	00000000 .debug_info
00000000 l    d  .debug_frame	00000000 .debug_frame
00000000 l    d  .debug_line	00000000 .debug_line
00000000         *UND*	00000000 _ZN4core3fmt8builders10DebugTuple6finish17h9fe84bda9ef11623E
00000000         *UND*	00000000 _ZN4core3fmt9Formatter11debug_tuple17h0bae6e4b2c8fffa4E
00000000 g     F .text._ZN73_$LT$cortex_m..register..primask..Primask$u20$as$u20$core..fmt..Debug$GT$3fmt17hc7897642fba52e17E	00000068 _ZN73_$LT$cortex_m..register..primask..Primask$u20$as$u20$core..fmt..Debug$GT$3fmt17hc7897642fba52e17E



Disassembly of section .text._ZN73_$LT$cortex_m..register..primask..Primask$u20$as$u20$core..fmt..Debug$GT$3fmt17hc7897642fba52e17E:

00000000 <_ZN73_$LT$cortex_m..register..primask..Primask$u20$as$u20$core..fmt..Debug$GT$3fmt17hc7897642fba52e17E>:
_ZN73_$LT$cortex_m..register..primask..Primask$u20$as$u20$core..fmt..Debug$GT$3fmt17hc7897642fba52e17E():
/home/breetai/.cargo/registry/src/github.com-1ecc6299db9ec823/cortex-m-0.6.2/src/register/primask.rs:5
//! Priority mask register

/// All exceptions with configurable priority are ...
#[allow(clippy::missing_inline_in_public_items)]
#[derive(Clone, Copy, Debug, Eq, PartialEq)]
   0:	b580      	push	{r7, lr}
   2:	466f      	mov	r7, sp
   4:	b08c      	sub	sp, #48	; 0x30
   6:	900a      	str	r0, [sp, #40]	; 0x28
   8:	910b      	str	r1, [sp, #44]	; 0x2c
   a:	9003      	str	r0, [sp, #12]
   c:	9803      	ldr	r0, [sp, #12]
   e:	7800      	ldrb	r0, [r0, #0]
  10:	07c2      	lsls	r2, r0, #31
  12:	2a00      	cmp	r2, #0
  14:	9101      	str	r1, [sp, #4]
  16:	d00b      	beq.n	30 <_ZN73_$LT$cortex_m..register..primask..Primask$u20$as$u20$core..fmt..Debug$GT$3fmt17hc7897642fba52e17E+0x30>
  18:	e7ff      	b.n	1a <_ZN73_$LT$cortex_m..register..primask..Primask$u20$as$u20$core..fmt..Debug$GT$3fmt17hc7897642fba52e17E+0x1a>
  1a:	f240 0200 	movw	r2, #0
  1e:	f2c0 0200 	movt	r2, #0
  22:	a807      	add	r0, sp, #28
  24:	2308      	movs	r3, #8
  26:	9901      	ldr	r1, [sp, #4]
  28:	f7ff fffe 	bl	0 <_ZN4core3fmt9Formatter11debug_tuple17h0bae6e4b2c8fffa4E>
  2c:	e011      	b.n	52 <_ZN73_$LT$cortex_m..register..primask..Primask$u20$as$u20$core..fmt..Debug$GT$3fmt17hc7897642fba52e17E+0x52>
  2e:	defe      	udf	#254	; 0xfe
  30:	f240 0200 	movw	r2, #0
  34:	f2c0 0200 	movt	r2, #0
  38:	a804      	add	r0, sp, #16
  3a:	2306      	movs	r3, #6
  3c:	9901      	ldr	r1, [sp, #4]
  3e:	f7ff fffe 	bl	0 <_ZN4core3fmt9Formatter11debug_tuple17h0bae6e4b2c8fffa4E>
  42:	e7ff      	b.n	44 <_ZN73_$LT$cortex_m..register..primask..Primask$u20$as$u20$core..fmt..Debug$GT$3fmt17hc7897642fba52e17E+0x44>
  44:	a804      	add	r0, sp, #16
  46:	f7ff fffe 	bl	0 <_ZN4core3fmt8builders10DebugTuple6finish17h9fe84bda9ef11623E>
  4a:	f807 0c25 	strb.w	r0, [r7, #-37]
  4e:	e7ff      	b.n	50 <_ZN73_$LT$cortex_m..register..primask..Primask$u20$as$u20$core..fmt..Debug$GT$3fmt17hc7897642fba52e17E+0x50>
  50:	e006      	b.n	60 <_ZN73_$LT$cortex_m..register..primask..Primask$u20$as$u20$core..fmt..Debug$GT$3fmt17hc7897642fba52e17E+0x60>
  52:	a807      	add	r0, sp, #28
  54:	f7ff fffe 	bl	0 <_ZN4core3fmt8builders10DebugTuple6finish17h9fe84bda9ef11623E>
  58:	f807 0c25 	strb.w	r0, [r7, #-37]
  5c:	e7ff      	b.n	5e <_ZN73_$LT$cortex_m..register..primask..Primask$u20$as$u20$core..fmt..Debug$GT$3fmt17hc7897642fba52e17E+0x5e>
  5e:	e7ff      	b.n	60 <_ZN73_$LT$cortex_m..register..primask..Primask$u20$as$u20$core..fmt..Debug$GT$3fmt17hc7897642fba52e17E+0x60>
  60:	f817 0c25 	ldrb.w	r0, [r7, #-37]
  64:	b00c      	add	sp, #48	; 0x30
  66:	bd80      	pop	{r7, pc}

cortex_m-bde398208d4285f9.cortex_m.9i9xlcl7-cgu.15.rcgu.o:     file format elf32-littlearm

SYMBOL TABLE:
00000000 l    df *ABS*	00000000 cortex_m.9i9xlcl7-cgu.15
00000000 l       .debug_str	00000000 
00000041 l       .debug_str	00000000 
00000099 l       .debug_str	00000000 
000000e6 l       .debug_str	00000000 
000000eb l       .debug_str	00000000 
000000f2 l       .debug_str	00000000 
000000f5 l       .debug_str	00000000 
000000f8 l       .debug_str	00000000 
000000fc l       .debug_str	00000000 
00000103 l       .debug_str	00000000 
0000010c l       .debug_str	00000000 
00000117 l       .debug_str	00000000 
0000011c l       .debug_str	00000000 
00000121 l       .debug_str	00000000 
0000012a l       .debug_str	00000000 
00000138 l       .debug_str	00000000 
0000013c l       .debug_str	00000000 
0000013f l       .debug_str	00000000 
00000142 l       .debug_str	00000000 
00000147 l       .debug_str	00000000 
0000014d l       .debug_str	00000000 
00000154 l       .debug_str	00000000 
0000015c l       .debug_str	00000000 
00000166 l       .debug_str	00000000 
0000016b l       .debug_str	00000000 
00000171 l       .debug_str	00000000 
0000017a l       .debug_str	00000000 
0000017e l       .debug_str	00000000 
00000184 l       .debug_str	00000000 
00000188 l       .debug_str	00000000 
000001dd l       .debug_str	00000000 
000001e7 l       .debug_str	00000000 
000001ee l       .debug_str	00000000 
000001f2 l       .debug_str	00000000 
000001f7 l       .debug_str	00000000 
000001fd l       .debug_str	00000000 
000001ff l       .debug_str	00000000 
00000204 l       .debug_str	00000000 
00000208 l       .debug_str	00000000 
00000216 l       .debug_str	00000000 
0000027b l       .debug_str	00000000 
0000027e l       .debug_str	00000000 
00000283 l       .debug_str	00000000 
000002a9 l       .debug_str	00000000 
000002b5 l       .debug_str	00000000 
00000321 l       .debug_str	00000000 
00000326 l       .debug_str	00000000 
0000032d l       .debug_str	00000000 
0000032f l       .debug_str	00000000 
00000336 l       .debug_str	00000000 
0000033c l       .debug_str	00000000 
0000033e l       .debug_str	00000000 
00000349 l       .debug_str	00000000 
0000034b l       .debug_str	00000000 
00000376 l       .debug_str	00000000 
00000378 l       .debug_str	00000000 
0000037e l       .debug_str	00000000 
00000383 l       .debug_str	00000000 
00000388 l       .debug_str	00000000 
0000038e l       .debug_str	00000000 
00000394 l       .debug_str	00000000 
0000039e l       .debug_str	00000000 
000003a2 l       .debug_str	00000000 
000003aa l       .debug_str	00000000 
000003b2 l       .debug_str	00000000 
000003b9 l       .debug_str	00000000 
000003cd l       .debug_str	00000000 
000003d9 l       .debug_str	00000000 
000003e4 l       .debug_str	00000000 
000003ee l       .debug_str	00000000 
00000408 l       .debug_str	00000000 
0000041c l       .debug_str	00000000 
00000425 l       .debug_str	00000000 
0000042c l       .debug_str	00000000 
00000437 l       .debug_str	00000000 
00000000 l     O .rodata.cst8	00000008 .L__unnamed_1
00000000 l     O .rodata.cst4	00000004 .L__unnamed_2
00000000 l    d  .text._ZN49_$LT$usize$u20$as$u20$core..iter..range..Step$GT$9add_usize17h175df8884232fcf6E	00000000 .text._ZN49_$LT$usize$u20$as$u20$core..iter..range..Step$GT$9add_usize17h175df8884232fcf6E
00000000 l    d  .text._ZN4core3cmp5impls57_$LT$impl$u20$core..cmp..PartialOrd$u20$for$u20$usize$GT$2lt17h6d6ada64f7ce6c58E	00000000 .text._ZN4core3cmp5impls57_$LT$impl$u20$core..cmp..PartialOrd$u20$for$u20$usize$GT$2lt17h6d6ada64f7ce6c58E
00000000 l    d  .text._ZN4core3mem4swap17hf96259010a2918e8E	00000000 .text._ZN4core3mem4swap17hf96259010a2918e8E
00000000 l    d  .text._ZN78_$LT$cortex_m..peripheral..syst..SystClkSource$u20$as$u20$core..fmt..Debug$GT$3fmt17h21e34f17284237c0E	00000000 .text._ZN78_$LT$cortex_m..peripheral..syst..SystClkSource$u20$as$u20$core..fmt..Debug$GT$3fmt17h21e34f17284237c0E
00000000 l    d  .debug_abbrev	00000000 .debug_abbrev
00000000 l    d  .debug_info	00000000 .debug_info
00000000 l    d  .debug_ranges	00000000 .debug_ranges
00000000 l    d  .debug_frame	00000000 .debug_frame
00000000 l    d  .debug_line	00000000 .debug_line
00000000 g     F .text._ZN49_$LT$usize$u20$as$u20$core..iter..range..Step$GT$9add_usize17h175df8884232fcf6E	00000036 .hidden _ZN49_$LT$usize$u20$as$u20$core..iter..range..Step$GT$9add_usize17h175df8884232fcf6E
00000000 g     F .text._ZN4core3cmp5impls57_$LT$impl$u20$core..cmp..PartialOrd$u20$for$u20$usize$GT$2lt17h6d6ada64f7ce6c58E	00000018 .hidden _ZN4core3cmp5impls57_$LT$impl$u20$core..cmp..PartialOrd$u20$for$u20$usize$GT$2lt17h6d6ada64f7ce6c58E
00000000         *UND*	00000000 _ZN4core3fmt8builders10DebugTuple6finish17h9fe84bda9ef11623E
00000000         *UND*	00000000 _ZN4core3fmt9Formatter11debug_tuple17h0bae6e4b2c8fffa4E
00000000 g     F .text._ZN4core3mem4swap17hf96259010a2918e8E	00000014 _ZN4core3mem4swap17hf96259010a2918e8E
00000000         *UND*	00000000 .hidden _ZN4core3num23_$LT$impl$u20$usize$GT$11checked_add17h3e2b276cbe7c4fe4E
00000000         *UND*	00000000 _ZN4core3ptr23swap_nonoverlapping_one17ha4fa4cb11a04cde2E
00000000         *UND*	00000000 _ZN53_$LT$T$u20$as$u20$core..convert..TryFrom$LT$U$GT$$GT$8try_from17hdb5cc64e8c33fb8eE
00000000 g     F .text._ZN78_$LT$cortex_m..peripheral..syst..SystClkSource$u20$as$u20$core..fmt..Debug$GT$3fmt17h21e34f17284237c0E	00000068 _ZN78_$LT$cortex_m..peripheral..syst..SystClkSource$u20$as$u20$core..fmt..Debug$GT$3fmt17h21e34f17284237c0E



Disassembly of section .text._ZN49_$LT$usize$u20$as$u20$core..iter..range..Step$GT$9add_usize17h175df8884232fcf6E:

00000000 <_ZN49_$LT$usize$u20$as$u20$core..iter..range..Step$GT$9add_usize17h175df8884232fcf6E>:
_ZN49_$LT$usize$u20$as$u20$core..iter..range..Step$GT$9add_usize17h175df8884232fcf6E():
/home/breetai/.rustup/toolchains/nightly-x86_64-unknown-linux-gnu/lib/rustlib/src/rust/src/libcore/iter/range.rs:93
                }
            }

            #[inline]
            #[allow(unreachable_patterns)]
            fn add_usize(&self, n: usize) -> Option<Self> {
   0:	b580      	push	{r7, lr}
   2:	466f      	mov	r7, sp
   4:	b088      	sub	sp, #32
   6:	9005      	str	r0, [sp, #20]
   8:	9106      	str	r1, [sp, #24]
/home/breetai/.rustup/toolchains/nightly-x86_64-unknown-linux-gnu/lib/rustlib/src/rust/src/libcore/iter/range.rs:94
                match <$t>::try_from(n) {
   a:	9003      	str	r0, [sp, #12]
   c:	4608      	mov	r0, r1
   e:	f7ff fffe 	bl	0 <_ZN53_$LT$T$u20$as$u20$core..convert..TryFrom$LT$U$GT$$GT$8try_from17hdb5cc64e8c33fb8eE>
  12:	9004      	str	r0, [sp, #16]
  14:	e7ff      	b.n	16 <_ZN49_$LT$usize$u20$as$u20$core..iter..range..Step$GT$9add_usize17h175df8884232fcf6E+0x16>
/home/breetai/.rustup/toolchains/nightly-x86_64-unknown-linux-gnu/lib/rustlib/src/rust/src/libcore/iter/range.rs:95
                    Ok(n_as_t) => self.checked_add(n_as_t),
  16:	9804      	ldr	r0, [sp, #16]
  18:	9007      	str	r0, [sp, #28]
  1a:	9903      	ldr	r1, [sp, #12]
  1c:	680a      	ldr	r2, [r1, #0]
  1e:	9002      	str	r0, [sp, #8]
  20:	4610      	mov	r0, r2
  22:	9902      	ldr	r1, [sp, #8]
  24:	f7ff fffe 	bl	0 <_ZN4core3num23_$LT$impl$u20$usize$GT$11checked_add17h3e2b276cbe7c4fe4E>
  28:	9001      	str	r0, [sp, #4]
  2a:	9100      	str	r1, [sp, #0]
  2c:	e7ff      	b.n	2e <_ZN49_$LT$usize$u20$as$u20$core..iter..range..Step$GT$9add_usize17h175df8884232fcf6E+0x2e>
/home/breetai/.rustup/toolchains/nightly-x86_64-unknown-linux-gnu/lib/rustlib/src/rust/src/libcore/iter/range.rs:98
                    Err(_) => None,
                }
            }
  2e:	9801      	ldr	r0, [sp, #4]
  30:	9900      	ldr	r1, [sp, #0]
  32:	b008      	add	sp, #32
  34:	bd80      	pop	{r7, pc}

Disassembly of section .text._ZN4core3cmp5impls57_$LT$impl$u20$core..cmp..PartialOrd$u20$for$u20$usize$GT$2lt17h6d6ada64f7ce6c58E:

00000000 <_ZN4core3cmp5impls57_$LT$impl$u20$core..cmp..PartialOrd$u20$for$u20$usize$GT$2lt17h6d6ada64f7ce6c58E>:
_ZN4core3cmp5impls57_$LT$impl$u20$core..cmp..PartialOrd$u20$for$u20$usize$GT$2lt17h6d6ada64f7ce6c58E():
/home/breetai/.rustup/toolchains/nightly-x86_64-unknown-linux-gnu/lib/rustlib/src/rust/src/libcore/cmp.rs:1137
                #[inline]
                fn partial_cmp(&self, other: &$t) -> Option<Ordering> {
                    Some(self.cmp(other))
                }
                #[inline]
                fn lt(&self, other: &$t) -> bool { (*self) < (*other) }
   0:	b082      	sub	sp, #8
   2:	9000      	str	r0, [sp, #0]
   4:	9101      	str	r1, [sp, #4]
   6:	6800      	ldr	r0, [r0, #0]
   8:	6809      	ldr	r1, [r1, #0]
   a:	2200      	movs	r2, #0
   c:	4288      	cmp	r0, r1
   e:	bf38      	it	cc
  10:	2201      	movcc	r2, #1
  12:	4610      	mov	r0, r2
  14:	b002      	add	sp, #8
  16:	4770      	bx	lr

Disassembly of section .text._ZN4core3mem4swap17hf96259010a2918e8E:

00000000 <_ZN4core3mem4swap17hf96259010a2918e8E>:
_ZN4core3mem4swap17hf96259010a2918e8E():
/home/breetai/.rustup/toolchains/nightly-x86_64-unknown-linux-gnu/lib/rustlib/src/rust/src/libcore/mem/mod.rs:676
/// assert_eq!(42, x);
/// assert_eq!(5, y);
/// ```
#[inline]
#[stable(feature = "rust1", since = "1.0.0")]
pub fn swap<T>(x: &mut T, y: &mut T) {
   0:	b580      	push	{r7, lr}
   2:	466f      	mov	r7, sp
   4:	b082      	sub	sp, #8
   6:	9000      	str	r0, [sp, #0]
   8:	9101      	str	r1, [sp, #4]
/home/breetai/.rustup/toolchains/nightly-x86_64-unknown-linux-gnu/lib/rustlib/src/rust/src/libcore/mem/mod.rs:680
    // SAFETY: the raw pointers have been created from safe mutable references satisfying all the
    // constraints on `ptr::swap_nonoverlapping_one`
    unsafe {
        ptr::swap_nonoverlapping_one(x, y);
   a:	f7ff fffe 	bl	0 <_ZN4core3ptr23swap_nonoverlapping_one17ha4fa4cb11a04cde2E>
   e:	e7ff      	b.n	10 <_ZN4core3mem4swap17hf96259010a2918e8E+0x10>
/home/breetai/.rustup/toolchains/nightly-x86_64-unknown-linux-gnu/lib/rustlib/src/rust/src/libcore/mem/mod.rs:682
    }
}
  10:	b002      	add	sp, #8
  12:	bd80      	pop	{r7, pc}

Disassembly of section .text._ZN78_$LT$cortex_m..peripheral..syst..SystClkSource$u20$as$u20$core..fmt..Debug$GT$3fmt17h21e34f17284237c0E:

00000000 <_ZN78_$LT$cortex_m..peripheral..syst..SystClkSource$u20$as$u20$core..fmt..Debug$GT$3fmt17h21e34f17284237c0E>:
_ZN78_$LT$cortex_m..peripheral..syst..SystClkSource$u20$as$u20$core..fmt..Debug$GT$3fmt17h21e34f17284237c0E():
/home/breetai/.cargo/registry/src/github.com-1ecc6299db9ec823/cortex-m-0.6.2/src/peripheral/syst.rs:22
    pub calib: RO<u32>,
}

/// SysTick clock source
#[allow(clippy::missing_inline_in_public_items)]
#[derive(Clone, Copy, Debug, PartialEq, Eq)]
   0:	b580      	push	{r7, lr}
   2:	466f      	mov	r7, sp
   4:	b08c      	sub	sp, #48	; 0x30
   6:	900a      	str	r0, [sp, #40]	; 0x28
   8:	910b      	str	r1, [sp, #44]	; 0x2c
   a:	9003      	str	r0, [sp, #12]
   c:	9803      	ldr	r0, [sp, #12]
   e:	7800      	ldrb	r0, [r0, #0]
  10:	07c2      	lsls	r2, r0, #31
  12:	2a00      	cmp	r2, #0
  14:	9101      	str	r1, [sp, #4]
  16:	d00b      	beq.n	30 <_ZN78_$LT$cortex_m..peripheral..syst..SystClkSource$u20$as$u20$core..fmt..Debug$GT$3fmt17h21e34f17284237c0E+0x30>
  18:	e7ff      	b.n	1a <_ZN78_$LT$cortex_m..peripheral..syst..SystClkSource$u20$as$u20$core..fmt..Debug$GT$3fmt17h21e34f17284237c0E+0x1a>
  1a:	f240 0200 	movw	r2, #0
  1e:	f2c0 0200 	movt	r2, #0
  22:	a807      	add	r0, sp, #28
  24:	2308      	movs	r3, #8
  26:	9901      	ldr	r1, [sp, #4]
  28:	f7ff fffe 	bl	0 <_ZN4core3fmt9Formatter11debug_tuple17h0bae6e4b2c8fffa4E>
  2c:	e011      	b.n	52 <_ZN78_$LT$cortex_m..peripheral..syst..SystClkSource$u20$as$u20$core..fmt..Debug$GT$3fmt17h21e34f17284237c0E+0x52>
  2e:	defe      	udf	#254	; 0xfe
  30:	f240 0200 	movw	r2, #0
  34:	f2c0 0200 	movt	r2, #0
  38:	a804      	add	r0, sp, #16
  3a:	2304      	movs	r3, #4
  3c:	9901      	ldr	r1, [sp, #4]
  3e:	f7ff fffe 	bl	0 <_ZN4core3fmt9Formatter11debug_tuple17h0bae6e4b2c8fffa4E>
  42:	e7ff      	b.n	44 <_ZN78_$LT$cortex_m..peripheral..syst..SystClkSource$u20$as$u20$core..fmt..Debug$GT$3fmt17h21e34f17284237c0E+0x44>
  44:	a804      	add	r0, sp, #16
  46:	f7ff fffe 	bl	0 <_ZN4core3fmt8builders10DebugTuple6finish17h9fe84bda9ef11623E>
  4a:	f807 0c25 	strb.w	r0, [r7, #-37]
  4e:	e7ff      	b.n	50 <_ZN78_$LT$cortex_m..peripheral..syst..SystClkSource$u20$as$u20$core..fmt..Debug$GT$3fmt17h21e34f17284237c0E+0x50>
  50:	e006      	b.n	60 <_ZN78_$LT$cortex_m..peripheral..syst..SystClkSource$u20$as$u20$core..fmt..Debug$GT$3fmt17h21e34f17284237c0E+0x60>
  52:	a807      	add	r0, sp, #28
  54:	f7ff fffe 	bl	0 <_ZN4core3fmt8builders10DebugTuple6finish17h9fe84bda9ef11623E>
  58:	f807 0c25 	strb.w	r0, [r7, #-37]
  5c:	e7ff      	b.n	5e <_ZN78_$LT$cortex_m..peripheral..syst..SystClkSource$u20$as$u20$core..fmt..Debug$GT$3fmt17h21e34f17284237c0E+0x5e>
  5e:	e7ff      	b.n	60 <_ZN78_$LT$cortex_m..peripheral..syst..SystClkSource$u20$as$u20$core..fmt..Debug$GT$3fmt17h21e34f17284237c0E+0x60>
  60:	f817 0c25 	ldrb.w	r0, [r7, #-37]
  64:	b00c      	add	sp, #48	; 0x30
  66:	bd80      	pop	{r7, pc}

cortex_m-bde398208d4285f9.cortex_m.9i9xlcl7-cgu.1.rcgu.o:     file format elf32-littlearm

SYMBOL TABLE:
00000000 l    df *ABS*	00000000 cortex_m.9i9xlcl7-cgu.1
00000000 l       .debug_str	00000000 
00000041 l       .debug_str	00000000 
00000099 l       .debug_str	00000000 
000000e6 l       .debug_str	00000000 
000000ef l       .debug_str	00000000 
000000f3 l       .debug_str	00000000 
00000125 l       .debug_str	00000000 
00000131 l       .debug_str	00000000 
00000160 l       .debug_str	00000000 
0000016a l       .debug_str	00000000 
0000019e l       .debug_str	00000000 
000001ac l       .debug_str	00000000 
000001b1 l       .debug_str	00000000 
000001bc l       .debug_str	00000000 
000001c5 l       .debug_str	00000000 
000001ca l       .debug_str	00000000 
000001cf l       .debug_str	00000000 
000001d5 l       .debug_str	00000000 
000001d9 l       .debug_str	00000000 
000001db l       .debug_str	00000000 
000001eb l       .debug_str	00000000 
000001f0 l       .debug_str	00000000 
00000215 l       .debug_str	00000000 
0000021b l       .debug_str	00000000 
00000224 l       .debug_str	00000000 
0000022f l       .debug_str	00000000 
00000236 l       .debug_str	00000000 
0000023c l       .debug_str	00000000 
00000243 l       .debug_str	00000000 
00000245 l       .debug_str	00000000 
0000024a l       .debug_str	00000000 
0000024e l       .debug_str	00000000 
00000254 l       .debug_str	00000000 
0000025a l       .debug_str	00000000 
0000025e l       .debug_str	00000000 
00000262 l       .debug_str	00000000 
0000026f l       .debug_str	00000000 
00000273 l       .debug_str	00000000 
0000027a l       .debug_str	00000000 
0000027f l       .debug_str	00000000 
00000286 l       .debug_str	00000000 
00000289 l       .debug_str	00000000 
00000293 l       .debug_str	00000000 
00000299 l       .debug_str	00000000 
0000029d l       .debug_str	00000000 
000002a1 l       .debug_str	00000000 
000002a9 l       .debug_str	00000000 
000002b4 l       .debug_str	00000000 
000002b7 l       .debug_str	00000000 
000002cb l       .debug_str	00000000 
000002cd l       .debug_str	00000000 
000002e8 l       .debug_str	00000000 
0000030d l       .debug_str	00000000 
00000312 l       .debug_str	00000000 
00000000 l     O .rodata..L__unnamed_1	00000010 .L__unnamed_1
00000000 l     O .rodata..L__unnamed_2	00000010 .L__unnamed_2
00000000 l     O .rodata..L__unnamed_3	00000010 .L__unnamed_3
00000000 l     F .text._ZN8cortex_m3itm11write_words17h06485c4d8e200857E	000000aa _ZN8cortex_m3itm11write_words17h06485c4d8e200857E
00000000 l     O .rodata.str.0	00000021 str.0
00000000 l    d  .text._ZN8cortex_m3itm11write_words17h06485c4d8e200857E	00000000 .text._ZN8cortex_m3itm11write_words17h06485c4d8e200857E
00000000 l    d  .text._ZN8cortex_m3itm9write_all17hba1b7f04fb24c0abE	00000000 .text._ZN8cortex_m3itm9write_all17hba1b7f04fb24c0abE
00000000 l    d  .text._ZN8cortex_m3itm13write_aligned17ha9580674e0640633E	00000000 .text._ZN8cortex_m3itm13write_aligned17ha9580674e0640633E
00000000 l    d  .rodata..L__unnamed_4	00000000 .rodata..L__unnamed_4
00000000 l    d  .debug_abbrev	00000000 .debug_abbrev
00000000 l    d  .debug_info	00000000 .debug_info
00000000 l    d  .debug_ranges	00000000 .debug_ranges
00000000 l    d  .debug_frame	00000000 .debug_frame
00000000 l    d  .debug_line	00000000 .debug_line
00000000         *UND*	00000000 _ZN4core3ptr4read17h09d0ff5656a6efaeE
00000000         *UND*	00000000 _ZN4core3ptr4read17hd27590e973e13d30E
00000000         *UND*	00000000 _ZN4core3ptr9const_ptr33_$LT$impl$u20$$BP$const$u20$T$GT$3add17h1a42d795a04a8f32E
00000000         *UND*	00000000 _ZN4core3ptr9const_ptr33_$LT$impl$u20$$BP$const$u20$T$GT$6offset17ha1a240ef10288ba6E
00000000         *UND*	00000000 _ZN4core3ptr9const_ptr33_$LT$impl$u20$$BP$const$u20$T$GT$6offset17hb09bcd71891303c0E
00000000         *UND*	00000000 _ZN4core4iter5range101_$LT$impl$u20$core..iter..traits..iterator..Iterator$u20$for$u20$core..ops..range..Range$LT$A$GT$$GT$4next17h4ff52b3bbc0fab8fE
00000000         *UND*	00000000 _ZN4core5slice14from_raw_parts17h1ab1a4b77b79b2d2E
00000000         *UND*	00000000 _ZN4core5slice14from_raw_parts17hee418eb749c35e64E
00000000         *UND*	00000000 _ZN4core5slice29_$LT$impl$u20$$u5b$T$u5d$$GT$3len17h341d477d908e1bf0E
00000000         *UND*	00000000 _ZN4core5slice29_$LT$impl$u20$$u5b$T$u5d$$GT$3len17hcb8d4c107b62141bE
00000000         *UND*	00000000 _ZN4core5slice29_$LT$impl$u20$$u5b$T$u5d$$GT$6as_ptr17h520d2392eac98859E
00000000         *UND*	00000000 _ZN4core5slice29_$LT$impl$u20$$u5b$T$u5d$$GT$6as_ptr17h5952ccb4945f3c6fE
00000000         *UND*	00000000 _ZN4core9panicking5panic17h8a599e70764df7ecE
00000000         *UND*	00000000 _ZN63_$LT$I$u20$as$u20$core..iter..traits..collect..IntoIterator$GT$9into_iter17h658deced04ca5d3aE
00000000         *UND*	00000000 _ZN73_$LT$aligned..Aligned$LT$A$C$T$GT$$u20$as$u20$core..ops..deref..Deref$GT$5deref17h4664586d969cc617E
00000000         *UND*	00000000 .hidden _ZN8cortex_m10peripheral3itm4Stim13is_fifo_ready17h33777971811e7470E
00000000         *UND*	00000000 .hidden _ZN8cortex_m10peripheral3itm4Stim8write_u817haee3c7a8a78c9ceaE
00000000         *UND*	00000000 .hidden _ZN8cortex_m10peripheral3itm4Stim9write_u1617hae3adfb40040ef18E
00000000         *UND*	00000000 .hidden _ZN8cortex_m10peripheral3itm4Stim9write_u3217h615f6aa5351e93ffE
00000000 g     F .text._ZN8cortex_m3itm13write_aligned17ha9580674e0640633E	0000015a _ZN8cortex_m3itm13write_aligned17ha9580674e0640633E
00000000 g     F .text._ZN8cortex_m3itm9write_all17hba1b7f04fb24c0abE	00000182 _ZN8cortex_m3itm9write_all17hba1b7f04fb24c0abE



Disassembly of section .text._ZN8cortex_m3itm11write_words17h06485c4d8e200857E:

00000000 <_ZN8cortex_m3itm11write_words17h06485c4d8e200857E>:
_ZN8cortex_m3itm11write_words17h06485c4d8e200857E():
/home/breetai/.cargo/registry/src/github.com-1ecc6299db9ec823/cortex-m-0.6.2/src/itm.rs:13

use crate::peripheral::itm::Stim;

// NOTE assumes that `bytes` is 32-bit aligned
#[allow(clippy::missing_inline_in_public_items)]
unsafe fn write_words(stim: &mut Stim, bytes: &[u32]) {
   0:	b580      	push	{r7, lr}
   2:	466f      	mov	r7, sp
   4:	b096      	sub	sp, #88	; 0x58
   6:	9011      	str	r0, [sp, #68]	; 0x44
   8:	9112      	str	r1, [sp, #72]	; 0x48
   a:	9213      	str	r2, [sp, #76]	; 0x4c
/home/breetai/.cargo/registry/src/github.com-1ecc6299db9ec823/cortex-m-0.6.2/src/itm.rs:14
    let mut p = bytes.as_ptr();
   c:	9009      	str	r0, [sp, #36]	; 0x24
   e:	4608      	mov	r0, r1
  10:	9108      	str	r1, [sp, #32]
  12:	4611      	mov	r1, r2
  14:	9207      	str	r2, [sp, #28]
  16:	f7ff fffe 	bl	0 <_ZN4core5slice29_$LT$impl$u20$$u5b$T$u5d$$GT$6as_ptr17h520d2392eac98859E>
  1a:	900a      	str	r0, [sp, #40]	; 0x28
  1c:	e7ff      	b.n	1e <_ZN8cortex_m3itm11write_words17h06485c4d8e200857E+0x1e>
/home/breetai/.cargo/registry/src/github.com-1ecc6299db9ec823/cortex-m-0.6.2/src/itm.rs:15
    for _ in 0..bytes.len() {
  1e:	9808      	ldr	r0, [sp, #32]
  20:	9907      	ldr	r1, [sp, #28]
  22:	f7ff fffe 	bl	0 <_ZN4core5slice29_$LT$impl$u20$$u5b$T$u5d$$GT$3len17h341d477d908e1bf0E>
  26:	9006      	str	r0, [sp, #24]
  28:	e7ff      	b.n	2a <_ZN8cortex_m3itm11write_words17h06485c4d8e200857E+0x2a>
  2a:	2000      	movs	r0, #0
  2c:	900b      	str	r0, [sp, #44]	; 0x2c
  2e:	9806      	ldr	r0, [sp, #24]
  30:	900c      	str	r0, [sp, #48]	; 0x30
  32:	980b      	ldr	r0, [sp, #44]	; 0x2c
  34:	990c      	ldr	r1, [sp, #48]	; 0x30
  36:	f7ff fffe 	bl	0 <_ZN63_$LT$I$u20$as$u20$core..iter..traits..collect..IntoIterator$GT$9into_iter17h658deced04ca5d3aE>
  3a:	9005      	str	r0, [sp, #20]
  3c:	9104      	str	r1, [sp, #16]
  3e:	e7ff      	b.n	40 <_ZN8cortex_m3itm11write_words17h06485c4d8e200857E+0x40>
  40:	9805      	ldr	r0, [sp, #20]
  42:	900d      	str	r0, [sp, #52]	; 0x34
  44:	9904      	ldr	r1, [sp, #16]
  46:	910e      	str	r1, [sp, #56]	; 0x38
  48:	e7ff      	b.n	4a <_ZN8cortex_m3itm11write_words17h06485c4d8e200857E+0x4a>
  4a:	a80d      	add	r0, sp, #52	; 0x34
  4c:	f7ff fffe 	bl	0 <_ZN4core4iter5range101_$LT$impl$u20$core..iter..traits..iterator..Iterator$u20$for$u20$core..ops..range..Range$LT$A$GT$$GT$4next17h4ff52b3bbc0fab8fE>
  50:	9110      	str	r1, [sp, #64]	; 0x40
  52:	900f      	str	r0, [sp, #60]	; 0x3c
  54:	e7ff      	b.n	56 <_ZN8cortex_m3itm11write_words17h06485c4d8e200857E+0x56>
  56:	980f      	ldr	r0, [sp, #60]	; 0x3c
  58:	2800      	cmp	r0, #0
  5a:	d001      	beq.n	60 <_ZN8cortex_m3itm11write_words17h06485c4d8e200857E+0x60>
  5c:	e7ff      	b.n	5e <_ZN8cortex_m3itm11write_words17h06485c4d8e200857E+0x5e>
  5e:	e002      	b.n	66 <_ZN8cortex_m3itm11write_words17h06485c4d8e200857E+0x66>
/home/breetai/.cargo/registry/src/github.com-1ecc6299db9ec823/cortex-m-0.6.2/src/itm.rs:20
        while !stim.is_fifo_ready() {}
        stim.write_u32(ptr::read(p));
        p = p.offset(1);
    }
}
  60:	b016      	add	sp, #88	; 0x58
  62:	bd80      	pop	{r7, pc}
/home/breetai/.cargo/registry/src/github.com-1ecc6299db9ec823/cortex-m-0.6.2/src/itm.rs:15
    for _ in 0..bytes.len() {
  64:	defe      	udf	#254	; 0xfe
  66:	9810      	ldr	r0, [sp, #64]	; 0x40
  68:	9014      	str	r0, [sp, #80]	; 0x50
  6a:	9015      	str	r0, [sp, #84]	; 0x54
/home/breetai/.cargo/registry/src/github.com-1ecc6299db9ec823/cortex-m-0.6.2/src/itm.rs:16
        while !stim.is_fifo_ready() {}
  6c:	e7ff      	b.n	6e <_ZN8cortex_m3itm11write_words17h06485c4d8e200857E+0x6e>
  6e:	9809      	ldr	r0, [sp, #36]	; 0x24
  70:	f7ff fffe 	bl	0 <_ZN8cortex_m10peripheral3itm4Stim13is_fifo_ready17h33777971811e7470E>
  74:	9003      	str	r0, [sp, #12]
  76:	e7ff      	b.n	78 <_ZN8cortex_m3itm11write_words17h06485c4d8e200857E+0x78>
  78:	9803      	ldr	r0, [sp, #12]
  7a:	07c1      	lsls	r1, r0, #31
  7c:	2900      	cmp	r1, #0
  7e:	d005      	beq.n	8c <_ZN8cortex_m3itm11write_words17h06485c4d8e200857E+0x8c>
  80:	e7ff      	b.n	82 <_ZN8cortex_m3itm11write_words17h06485c4d8e200857E+0x82>
/home/breetai/.cargo/registry/src/github.com-1ecc6299db9ec823/cortex-m-0.6.2/src/itm.rs:17
        stim.write_u32(ptr::read(p));
  82:	980a      	ldr	r0, [sp, #40]	; 0x28
  84:	f7ff fffe 	bl	0 <_ZN4core3ptr4read17hd27590e973e13d30E>
  88:	9002      	str	r0, [sp, #8]
  8a:	e000      	b.n	8e <_ZN8cortex_m3itm11write_words17h06485c4d8e200857E+0x8e>
/home/breetai/.cargo/registry/src/github.com-1ecc6299db9ec823/cortex-m-0.6.2/src/itm.rs:16
        while !stim.is_fifo_ready() {}
  8c:	e7ef      	b.n	6e <_ZN8cortex_m3itm11write_words17h06485c4d8e200857E+0x6e>
/home/breetai/.cargo/registry/src/github.com-1ecc6299db9ec823/cortex-m-0.6.2/src/itm.rs:17
        stim.write_u32(ptr::read(p));
  8e:	9809      	ldr	r0, [sp, #36]	; 0x24
  90:	9902      	ldr	r1, [sp, #8]
  92:	f7ff fffe 	bl	0 <_ZN8cortex_m10peripheral3itm4Stim9write_u3217h615f6aa5351e93ffE>
  96:	e7ff      	b.n	98 <_ZN8cortex_m3itm11write_words17h06485c4d8e200857E+0x98>
/home/breetai/.cargo/registry/src/github.com-1ecc6299db9ec823/cortex-m-0.6.2/src/itm.rs:18
        p = p.offset(1);
  98:	980a      	ldr	r0, [sp, #40]	; 0x28
  9a:	2101      	movs	r1, #1
  9c:	f7ff fffe 	bl	0 <_ZN4core3ptr9const_ptr33_$LT$impl$u20$$BP$const$u20$T$GT$6offset17ha1a240ef10288ba6E>
  a0:	9001      	str	r0, [sp, #4]
  a2:	e7ff      	b.n	a4 <_ZN8cortex_m3itm11write_words17h06485c4d8e200857E+0xa4>
  a4:	9801      	ldr	r0, [sp, #4]
  a6:	900a      	str	r0, [sp, #40]	; 0x28
/home/breetai/.cargo/registry/src/github.com-1ecc6299db9ec823/cortex-m-0.6.2/src/itm.rs:15
    for _ in 0..bytes.len() {
  a8:	e7cf      	b.n	4a <_ZN8cortex_m3itm11write_words17h06485c4d8e200857E+0x4a>

Disassembly of section .text._ZN8cortex_m3itm9write_all17hba1b7f04fb24c0abE:

00000000 <_ZN8cortex_m3itm9write_all17hba1b7f04fb24c0abE>:
_ZN8cortex_m3itm9write_all17hba1b7f04fb24c0abE():
/home/breetai/.cargo/registry/src/github.com-1ecc6299db9ec823/cortex-m-0.6.2/src/itm.rs:36

/// Writes a `buffer` to the ITM `port`
#[allow(clippy::cast_ptr_alignment)]
#[allow(clippy::missing_inline_in_public_items)]
#[allow(clippy::transmute_ptr_to_ptr)]
pub fn write_all(port: &mut Stim, buffer: &[u8]) {
   0:	b580      	push	{r7, lr}
   2:	466f      	mov	r7, sp
   4:	b098      	sub	sp, #96	; 0x60
   6:	9013      	str	r0, [sp, #76]	; 0x4c
   8:	9114      	str	r1, [sp, #80]	; 0x50
   a:	9215      	str	r2, [sp, #84]	; 0x54
/home/breetai/.cargo/registry/src/github.com-1ecc6299db9ec823/cortex-m-0.6.2/src/itm.rs:38
    unsafe {
        let mut len = buffer.len();
   c:	900f      	str	r0, [sp, #60]	; 0x3c
   e:	4608      	mov	r0, r1
  10:	910e      	str	r1, [sp, #56]	; 0x38
  12:	4611      	mov	r1, r2
  14:	920d      	str	r2, [sp, #52]	; 0x34
  16:	f7ff fffe 	bl	0 <_ZN4core5slice29_$LT$impl$u20$$u5b$T$u5d$$GT$3len17hcb8d4c107b62141bE>
  1a:	9011      	str	r0, [sp, #68]	; 0x44
  1c:	e7ff      	b.n	1e <_ZN8cortex_m3itm9write_all17hba1b7f04fb24c0abE+0x1e>
/home/breetai/.cargo/registry/src/github.com-1ecc6299db9ec823/cortex-m-0.6.2/src/itm.rs:39
        let mut ptr = buffer.as_ptr();
  1e:	980e      	ldr	r0, [sp, #56]	; 0x38
  20:	990d      	ldr	r1, [sp, #52]	; 0x34
  22:	f7ff fffe 	bl	0 <_ZN4core5slice29_$LT$impl$u20$$u5b$T$u5d$$GT$6as_ptr17h5952ccb4945f3c6fE>
  26:	9012      	str	r0, [sp, #72]	; 0x48
  28:	e7ff      	b.n	2a <_ZN8cortex_m3itm9write_all17hba1b7f04fb24c0abE+0x2a>
/home/breetai/.cargo/registry/src/github.com-1ecc6299db9ec823/cortex-m-0.6.2/src/itm.rs:41

        if len == 0 {
  2a:	9811      	ldr	r0, [sp, #68]	; 0x44
  2c:	2800      	cmp	r0, #0
  2e:	d006      	beq.n	3e <_ZN8cortex_m3itm9write_all17hba1b7f04fb24c0abE+0x3e>
  30:	e7ff      	b.n	32 <_ZN8cortex_m3itm9write_all17hba1b7f04fb24c0abE+0x32>
/home/breetai/.cargo/registry/src/github.com-1ecc6299db9ec823/cortex-m-0.6.2/src/itm.rs:46
            return;
        }

        // 0x01 OR 0x03
        if ptr as usize % 2 == 1 {
  32:	f89d 0048 	ldrb.w	r0, [sp, #72]	; 0x48
  36:	07c0      	lsls	r0, r0, #31
  38:	2800      	cmp	r0, #0
  3a:	d102      	bne.n	42 <_ZN8cortex_m3itm9write_all17hba1b7f04fb24c0abE+0x42>
  3c:	e000      	b.n	40 <_ZN8cortex_m3itm9write_all17hba1b7f04fb24c0abE+0x40>
/home/breetai/.cargo/registry/src/github.com-1ecc6299db9ec823/cortex-m-0.6.2/src/lib.rs:1
//! Low level access to Cortex-M processors
  3e:	e085      	b.n	14c <_ZN8cortex_m3itm9write_all17hba1b7f04fb24c0abE+0x14c>
/home/breetai/.cargo/registry/src/github.com-1ecc6299db9ec823/cortex-m-0.6.2/src/itm.rs:46
  40:	e022      	b.n	88 <_ZN8cortex_m3itm9write_all17hba1b7f04fb24c0abE+0x88>
/home/breetai/.cargo/registry/src/github.com-1ecc6299db9ec823/cortex-m-0.6.2/src/itm.rs:47
            while !port.is_fifo_ready() {}
  42:	e7ff      	b.n	44 <_ZN8cortex_m3itm9write_all17hba1b7f04fb24c0abE+0x44>
  44:	980f      	ldr	r0, [sp, #60]	; 0x3c
  46:	f7ff fffe 	bl	0 <_ZN8cortex_m10peripheral3itm4Stim13is_fifo_ready17h33777971811e7470E>
  4a:	900c      	str	r0, [sp, #48]	; 0x30
  4c:	e7ff      	b.n	4e <_ZN8cortex_m3itm9write_all17hba1b7f04fb24c0abE+0x4e>
  4e:	980c      	ldr	r0, [sp, #48]	; 0x30
  50:	07c1      	lsls	r1, r0, #31
  52:	2900      	cmp	r1, #0
  54:	d006      	beq.n	64 <_ZN8cortex_m3itm9write_all17hba1b7f04fb24c0abE+0x64>
  56:	e7ff      	b.n	58 <_ZN8cortex_m3itm9write_all17hba1b7f04fb24c0abE+0x58>
/home/breetai/.cargo/registry/src/github.com-1ecc6299db9ec823/cortex-m-0.6.2/src/itm.rs:48
            port.write_u8(*ptr);
  58:	9812      	ldr	r0, [sp, #72]	; 0x48
  5a:	7801      	ldrb	r1, [r0, #0]
  5c:	980f      	ldr	r0, [sp, #60]	; 0x3c
  5e:	f7ff fffe 	bl	0 <_ZN8cortex_m10peripheral3itm4Stim8write_u817haee3c7a8a78c9ceaE>
  62:	e000      	b.n	66 <_ZN8cortex_m3itm9write_all17hba1b7f04fb24c0abE+0x66>
/home/breetai/.cargo/registry/src/github.com-1ecc6299db9ec823/cortex-m-0.6.2/src/itm.rs:47
            while !port.is_fifo_ready() {}
  64:	e7ee      	b.n	44 <_ZN8cortex_m3itm9write_all17hba1b7f04fb24c0abE+0x44>
/home/breetai/.cargo/registry/src/github.com-1ecc6299db9ec823/cortex-m-0.6.2/src/itm.rs:51

            // 0x02 OR 0x04
            ptr = ptr.offset(1);
  66:	9812      	ldr	r0, [sp, #72]	; 0x48
  68:	2101      	movs	r1, #1
  6a:	f7ff fffe 	bl	0 <_ZN4core3ptr9const_ptr33_$LT$impl$u20$$BP$const$u20$T$GT$6offset17hb09bcd71891303c0E>
  6e:	900b      	str	r0, [sp, #44]	; 0x2c
  70:	e7ff      	b.n	72 <_ZN8cortex_m3itm9write_all17hba1b7f04fb24c0abE+0x72>
  72:	980b      	ldr	r0, [sp, #44]	; 0x2c
  74:	9012      	str	r0, [sp, #72]	; 0x48
/home/breetai/.cargo/registry/src/github.com-1ecc6299db9ec823/cortex-m-0.6.2/src/itm.rs:52
            len -= 1;
  76:	9911      	ldr	r1, [sp, #68]	; 0x44
  78:	1e4a      	subs	r2, r1, #1
  7a:	2901      	cmp	r1, #1
  7c:	920a      	str	r2, [sp, #40]	; 0x28
  7e:	d368      	bcc.n	152 <_ZN8cortex_m3itm9write_all17hba1b7f04fb24c0abE+0x152>
  80:	e7ff      	b.n	82 <_ZN8cortex_m3itm9write_all17hba1b7f04fb24c0abE+0x82>
  82:	980a      	ldr	r0, [sp, #40]	; 0x28
  84:	9011      	str	r0, [sp, #68]	; 0x44
/home/breetai/.cargo/registry/src/github.com-1ecc6299db9ec823/cortex-m-0.6.2/src/itm.rs:46
        if ptr as usize % 2 == 1 {
  86:	e7ff      	b.n	88 <_ZN8cortex_m3itm9write_all17hba1b7f04fb24c0abE+0x88>
/home/breetai/.cargo/registry/src/github.com-1ecc6299db9ec823/cortex-m-0.6.2/src/itm.rs:56
        }

        // 0x02
        if ptr as usize % 4 == 2 {
  88:	9812      	ldr	r0, [sp, #72]	; 0x48
  8a:	f000 0003 	and.w	r0, r0, #3
  8e:	2802      	cmp	r0, #2
  90:	d001      	beq.n	96 <_ZN8cortex_m3itm9write_all17hba1b7f04fb24c0abE+0x96>
  92:	e7ff      	b.n	94 <_ZN8cortex_m3itm9write_all17hba1b7f04fb24c0abE+0x94>
  94:	e043      	b.n	11e <_ZN8cortex_m3itm9write_all17hba1b7f04fb24c0abE+0x11e>
/home/breetai/.cargo/registry/src/github.com-1ecc6299db9ec823/cortex-m-0.6.2/src/itm.rs:57
            if len > 1 {
  96:	9811      	ldr	r0, [sp, #68]	; 0x44
  98:	2801      	cmp	r0, #1
  9a:	d804      	bhi.n	a6 <_ZN8cortex_m3itm9write_all17hba1b7f04fb24c0abE+0xa6>
  9c:	e7ff      	b.n	9e <_ZN8cortex_m3itm9write_all17hba1b7f04fb24c0abE+0x9e>
/home/breetai/.cargo/registry/src/github.com-1ecc6299db9ec823/cortex-m-0.6.2/src/itm.rs:66

                // 0x04
                ptr = ptr.offset(2);
                len -= 2;
            } else {
                if len == 1 {
  9e:	9811      	ldr	r0, [sp, #68]	; 0x44
  a0:	2801      	cmp	r0, #1
  a2:	d028      	beq.n	f6 <_ZN8cortex_m3itm9write_all17hba1b7f04fb24c0abE+0xf6>
  a4:	e026      	b.n	f4 <_ZN8cortex_m3itm9write_all17hba1b7f04fb24c0abE+0xf4>
/home/breetai/.cargo/registry/src/github.com-1ecc6299db9ec823/cortex-m-0.6.2/src/itm.rs:59
                while !port.is_fifo_ready() {}
  a6:	e7ff      	b.n	a8 <_ZN8cortex_m3itm9write_all17hba1b7f04fb24c0abE+0xa8>
  a8:	980f      	ldr	r0, [sp, #60]	; 0x3c
  aa:	f7ff fffe 	bl	0 <_ZN8cortex_m10peripheral3itm4Stim13is_fifo_ready17h33777971811e7470E>
  ae:	9009      	str	r0, [sp, #36]	; 0x24
  b0:	e7ff      	b.n	b2 <_ZN8cortex_m3itm9write_all17hba1b7f04fb24c0abE+0xb2>
  b2:	9809      	ldr	r0, [sp, #36]	; 0x24
  b4:	07c1      	lsls	r1, r0, #31
  b6:	2900      	cmp	r1, #0
  b8:	d005      	beq.n	c6 <_ZN8cortex_m3itm9write_all17hba1b7f04fb24c0abE+0xc6>
  ba:	e7ff      	b.n	bc <_ZN8cortex_m3itm9write_all17hba1b7f04fb24c0abE+0xbc>
/home/breetai/.cargo/registry/src/github.com-1ecc6299db9ec823/cortex-m-0.6.2/src/itm.rs:60
                port.write_u16(ptr::read(ptr as *const u16));
  bc:	9812      	ldr	r0, [sp, #72]	; 0x48
  be:	f7ff fffe 	bl	0 <_ZN4core3ptr4read17h09d0ff5656a6efaeE>
  c2:	9008      	str	r0, [sp, #32]
  c4:	e000      	b.n	c8 <_ZN8cortex_m3itm9write_all17hba1b7f04fb24c0abE+0xc8>
/home/breetai/.cargo/registry/src/github.com-1ecc6299db9ec823/cortex-m-0.6.2/src/itm.rs:59
                while !port.is_fifo_ready() {}
  c6:	e7ef      	b.n	a8 <_ZN8cortex_m3itm9write_all17hba1b7f04fb24c0abE+0xa8>
/home/breetai/.cargo/registry/src/github.com-1ecc6299db9ec823/cortex-m-0.6.2/src/itm.rs:60
                port.write_u16(ptr::read(ptr as *const u16));
  c8:	980f      	ldr	r0, [sp, #60]	; 0x3c
  ca:	9908      	ldr	r1, [sp, #32]
  cc:	f7ff fffe 	bl	0 <_ZN8cortex_m10peripheral3itm4Stim9write_u1617hae3adfb40040ef18E>
  d0:	e7ff      	b.n	d2 <_ZN8cortex_m3itm9write_all17hba1b7f04fb24c0abE+0xd2>
/home/breetai/.cargo/registry/src/github.com-1ecc6299db9ec823/cortex-m-0.6.2/src/itm.rs:63
                ptr = ptr.offset(2);
  d2:	9812      	ldr	r0, [sp, #72]	; 0x48
  d4:	2102      	movs	r1, #2
  d6:	f7ff fffe 	bl	0 <_ZN4core3ptr9const_ptr33_$LT$impl$u20$$BP$const$u20$T$GT$6offset17hb09bcd71891303c0E>
  da:	9007      	str	r0, [sp, #28]
  dc:	e7ff      	b.n	de <_ZN8cortex_m3itm9write_all17hba1b7f04fb24c0abE+0xde>
  de:	9807      	ldr	r0, [sp, #28]
  e0:	9012      	str	r0, [sp, #72]	; 0x48
/home/breetai/.cargo/registry/src/github.com-1ecc6299db9ec823/cortex-m-0.6.2/src/itm.rs:64
                len -= 2;
  e2:	9911      	ldr	r1, [sp, #68]	; 0x44
  e4:	1e8a      	subs	r2, r1, #2
  e6:	2902      	cmp	r1, #2
  e8:	9206      	str	r2, [sp, #24]
  ea:	d33e      	bcc.n	16a <_ZN8cortex_m3itm9write_all17hba1b7f04fb24c0abE+0x16a>
  ec:	e7ff      	b.n	ee <_ZN8cortex_m3itm9write_all17hba1b7f04fb24c0abE+0xee>
  ee:	9806      	ldr	r0, [sp, #24]
  f0:	9011      	str	r0, [sp, #68]	; 0x44
/home/breetai/.cargo/registry/src/github.com-1ecc6299db9ec823/cortex-m-0.6.2/src/itm.rs:56
        if ptr as usize % 4 == 2 {
  f2:	e014      	b.n	11e <_ZN8cortex_m3itm9write_all17hba1b7f04fb24c0abE+0x11e>
/home/breetai/.cargo/registry/src/github.com-1ecc6299db9ec823/cortex-m-0.6.2/src/itm.rs:66
                if len == 1 {
  f4:	e012      	b.n	11c <_ZN8cortex_m3itm9write_all17hba1b7f04fb24c0abE+0x11c>
/home/breetai/.cargo/registry/src/github.com-1ecc6299db9ec823/cortex-m-0.6.2/src/itm.rs:68
                    // last byte
                    while !port.is_fifo_ready() {}
  f6:	e7ff      	b.n	f8 <_ZN8cortex_m3itm9write_all17hba1b7f04fb24c0abE+0xf8>
  f8:	980f      	ldr	r0, [sp, #60]	; 0x3c
  fa:	f7ff fffe 	bl	0 <_ZN8cortex_m10peripheral3itm4Stim13is_fifo_ready17h33777971811e7470E>
  fe:	9005      	str	r0, [sp, #20]
 100:	e7ff      	b.n	102 <_ZN8cortex_m3itm9write_all17hba1b7f04fb24c0abE+0x102>
 102:	9805      	ldr	r0, [sp, #20]
 104:	07c1      	lsls	r1, r0, #31
 106:	2900      	cmp	r1, #0
 108:	d006      	beq.n	118 <_ZN8cortex_m3itm9write_all17hba1b7f04fb24c0abE+0x118>
 10a:	e7ff      	b.n	10c <_ZN8cortex_m3itm9write_all17hba1b7f04fb24c0abE+0x10c>
/home/breetai/.cargo/registry/src/github.com-1ecc6299db9ec823/cortex-m-0.6.2/src/itm.rs:69
                    port.write_u8(*ptr);
 10c:	9812      	ldr	r0, [sp, #72]	; 0x48
 10e:	7801      	ldrb	r1, [r0, #0]
 110:	980f      	ldr	r0, [sp, #60]	; 0x3c
 112:	f7ff fffe 	bl	0 <_ZN8cortex_m10peripheral3itm4Stim8write_u817haee3c7a8a78c9ceaE>
 116:	e000      	b.n	11a <_ZN8cortex_m3itm9write_all17hba1b7f04fb24c0abE+0x11a>
/home/breetai/.cargo/registry/src/github.com-1ecc6299db9ec823/cortex-m-0.6.2/src/itm.rs:68
                    while !port.is_fifo_ready() {}
 118:	e7ee      	b.n	f8 <_ZN8cortex_m3itm9write_all17hba1b7f04fb24c0abE+0xf8>
/home/breetai/.cargo/registry/src/github.com-1ecc6299db9ec823/cortex-m-0.6.2/src/itm.rs:66
                if len == 1 {
 11a:	e7ff      	b.n	11c <_ZN8cortex_m3itm9write_all17hba1b7f04fb24c0abE+0x11c>
/home/breetai/.cargo/registry/src/github.com-1ecc6299db9ec823/cortex-m-0.6.2/src/lib.rs:1
 11c:	e016      	b.n	14c <_ZN8cortex_m3itm9write_all17hba1b7f04fb24c0abE+0x14c>
/home/breetai/.cargo/registry/src/github.com-1ecc6299db9ec823/cortex-m-0.6.2/src/itm.rs:76

                return;
            }
        }

        write_aligned(port, mem::transmute(slice::from_raw_parts(ptr, len)));
 11e:	9812      	ldr	r0, [sp, #72]	; 0x48
 120:	9911      	ldr	r1, [sp, #68]	; 0x44
 122:	f7ff fffe 	bl	0 <_ZN4core5slice14from_raw_parts17hee418eb749c35e64E>
 126:	9004      	str	r0, [sp, #16]
 128:	9103      	str	r1, [sp, #12]
 12a:	e7ff      	b.n	12c <_ZN8cortex_m3itm9write_all17hba1b7f04fb24c0abE+0x12c>
 12c:	9804      	ldr	r0, [sp, #16]
 12e:	9016      	str	r0, [sp, #88]	; 0x58
 130:	9903      	ldr	r1, [sp, #12]
 132:	9117      	str	r1, [sp, #92]	; 0x5c
 134:	9916      	ldr	r1, [sp, #88]	; 0x58
 136:	9a17      	ldr	r2, [sp, #92]	; 0x5c
 138:	9102      	str	r1, [sp, #8]
 13a:	9201      	str	r2, [sp, #4]
 13c:	e7ff      	b.n	13e <_ZN8cortex_m3itm9write_all17hba1b7f04fb24c0abE+0x13e>
 13e:	980f      	ldr	r0, [sp, #60]	; 0x3c
 140:	9902      	ldr	r1, [sp, #8]
 142:	9a01      	ldr	r2, [sp, #4]
 144:	f7ff fffe 	bl	0 <_ZN8cortex_m3itm9write_all17hba1b7f04fb24c0abE>
 148:	e7ff      	b.n	14a <_ZN8cortex_m3itm9write_all17hba1b7f04fb24c0abE+0x14a>
/home/breetai/.cargo/registry/src/github.com-1ecc6299db9ec823/cortex-m-0.6.2/src/itm.rs:78
    }
}
 14a:	e000      	b.n	14e <_ZN8cortex_m3itm9write_all17hba1b7f04fb24c0abE+0x14e>
 14c:	e7ff      	b.n	14e <_ZN8cortex_m3itm9write_all17hba1b7f04fb24c0abE+0x14e>
 14e:	b018      	add	sp, #96	; 0x60
 150:	bd80      	pop	{r7, pc}
/home/breetai/.cargo/registry/src/github.com-1ecc6299db9ec823/cortex-m-0.6.2/src/itm.rs:52
            len -= 1;
 152:	f240 0000 	movw	r0, #0
 156:	f2c0 0000 	movt	r0, #0
 15a:	f240 0200 	movw	r2, #0
 15e:	f2c0 0200 	movt	r2, #0
 162:	2121      	movs	r1, #33	; 0x21
 164:	f7ff fffe 	bl	0 <_ZN4core9panicking5panic17h8a599e70764df7ecE>
 168:	defe      	udf	#254	; 0xfe
/home/breetai/.cargo/registry/src/github.com-1ecc6299db9ec823/cortex-m-0.6.2/src/itm.rs:64
                len -= 2;
 16a:	f240 0000 	movw	r0, #0
 16e:	f2c0 0000 	movt	r0, #0
 172:	f240 0200 	movw	r2, #0
 176:	f2c0 0200 	movt	r2, #0
 17a:	2121      	movs	r1, #33	; 0x21
 17c:	f7ff fffe 	bl	0 <_ZN4core9panicking5panic17h8a599e70764df7ecE>
 180:	defe      	udf	#254	; 0xfe

Disassembly of section .text._ZN8cortex_m3itm13write_aligned17ha9580674e0640633E:

00000000 <_ZN8cortex_m3itm13write_aligned17ha9580674e0640633E>:
_ZN8cortex_m3itm13write_aligned17ha9580674e0640633E():
/home/breetai/.cargo/registry/src/github.com-1ecc6299db9ec823/cortex-m-0.6.2/src/itm.rs:97
/// itm::write_aligned(&itm.stim[0], &Aligned(*b"Hello, world!\n"));
/// ```
#[allow(clippy::cast_ptr_alignment)]
#[allow(clippy::missing_inline_in_public_items)]
#[allow(clippy::transmute_ptr_to_ptr)]
pub fn write_aligned(port: &mut Stim, buffer: &Aligned<A4, [u8]>) {
   0:	b580      	push	{r7, lr}
   2:	466f      	mov	r7, sp
   4:	b09e      	sub	sp, #120	; 0x78
   6:	9019      	str	r0, [sp, #100]	; 0x64
   8:	911a      	str	r1, [sp, #104]	; 0x68
   a:	921b      	str	r2, [sp, #108]	; 0x6c
/home/breetai/.cargo/registry/src/github.com-1ecc6299db9ec823/cortex-m-0.6.2/src/itm.rs:99
    unsafe {
        let len = buffer.len();
   c:	9015      	str	r0, [sp, #84]	; 0x54
   e:	4608      	mov	r0, r1
  10:	9114      	str	r1, [sp, #80]	; 0x50
  12:	4611      	mov	r1, r2
  14:	9213      	str	r2, [sp, #76]	; 0x4c
  16:	f7ff fffe 	bl	0 <_ZN73_$LT$aligned..Aligned$LT$A$C$T$GT$$u20$as$u20$core..ops..deref..Deref$GT$5deref17h4664586d969cc617E>
  1a:	9012      	str	r0, [sp, #72]	; 0x48
  1c:	9111      	str	r1, [sp, #68]	; 0x44
  1e:	e7ff      	b.n	20 <_ZN8cortex_m3itm13write_aligned17ha9580674e0640633E+0x20>
  20:	9812      	ldr	r0, [sp, #72]	; 0x48
  22:	9911      	ldr	r1, [sp, #68]	; 0x44
  24:	f7ff fffe 	bl	0 <_ZN4core5slice29_$LT$impl$u20$$u5b$T$u5d$$GT$3len17hcb8d4c107b62141bE>
  28:	4601      	mov	r1, r0
  2a:	901c      	str	r0, [sp, #112]	; 0x70
  2c:	9110      	str	r1, [sp, #64]	; 0x40
  2e:	e7ff      	b.n	30 <_ZN8cortex_m3itm13write_aligned17ha9580674e0640633E+0x30>
/home/breetai/.cargo/registry/src/github.com-1ecc6299db9ec823/cortex-m-0.6.2/src/itm.rs:101

        if len == 0 {
  30:	9810      	ldr	r0, [sp, #64]	; 0x40
  32:	2800      	cmp	r0, #0
  34:	d00d      	beq.n	52 <_ZN8cortex_m3itm13write_aligned17ha9580674e0640633E+0x52>
  36:	e7ff      	b.n	38 <_ZN8cortex_m3itm13write_aligned17ha9580674e0640633E+0x38>
/home/breetai/.cargo/registry/src/github.com-1ecc6299db9ec823/cortex-m-0.6.2/src/itm.rs:105
            return;
        }

        let split = len & !0b11;
  38:	9810      	ldr	r0, [sp, #64]	; 0x40
  3a:	f020 0103 	bic.w	r1, r0, #3
  3e:	460a      	mov	r2, r1
  40:	911d      	str	r1, [sp, #116]	; 0x74
/home/breetai/.cargo/registry/src/github.com-1ecc6299db9ec823/cortex-m-0.6.2/src/itm.rs:108
        write_words(
            port,
            slice::from_raw_parts(buffer.as_ptr() as *const u32, split >> 2),
  42:	9814      	ldr	r0, [sp, #80]	; 0x50
  44:	9913      	ldr	r1, [sp, #76]	; 0x4c
  46:	920f      	str	r2, [sp, #60]	; 0x3c
  48:	f7ff fffe 	bl	0 <_ZN73_$LT$aligned..Aligned$LT$A$C$T$GT$$u20$as$u20$core..ops..deref..Deref$GT$5deref17h4664586d969cc617E>
  4c:	900e      	str	r0, [sp, #56]	; 0x38
  4e:	910d      	str	r1, [sp, #52]	; 0x34
  50:	e000      	b.n	54 <_ZN8cortex_m3itm13write_aligned17ha9580674e0640633E+0x54>
/home/breetai/.cargo/registry/src/github.com-1ecc6299db9ec823/cortex-m-0.6.2/src/itm.rs:130
        if left == 1 {
            while !port.is_fifo_ready() {}
            port.write_u8(*ptr);
        }
    }
}
  52:	e074      	b.n	13e <_ZN8cortex_m3itm13write_aligned17ha9580674e0640633E+0x13e>
/home/breetai/.cargo/registry/src/github.com-1ecc6299db9ec823/cortex-m-0.6.2/src/itm.rs:108
            slice::from_raw_parts(buffer.as_ptr() as *const u32, split >> 2),
  54:	980e      	ldr	r0, [sp, #56]	; 0x38
  56:	990d      	ldr	r1, [sp, #52]	; 0x34
  58:	f7ff fffe 	bl	0 <_ZN4core5slice29_$LT$impl$u20$$u5b$T$u5d$$GT$6as_ptr17h5952ccb4945f3c6fE>
  5c:	900c      	str	r0, [sp, #48]	; 0x30
  5e:	e7ff      	b.n	60 <_ZN8cortex_m3itm13write_aligned17ha9580674e0640633E+0x60>
  60:	980c      	ldr	r0, [sp, #48]	; 0x30
  62:	990f      	ldr	r1, [sp, #60]	; 0x3c
  64:	088a      	lsrs	r2, r1, #2
  66:	900b      	str	r0, [sp, #44]	; 0x2c
  68:	920a      	str	r2, [sp, #40]	; 0x28
  6a:	e7ff      	b.n	6c <_ZN8cortex_m3itm13write_aligned17ha9580674e0640633E+0x6c>
  6c:	980b      	ldr	r0, [sp, #44]	; 0x2c
  6e:	990a      	ldr	r1, [sp, #40]	; 0x28
  70:	f7ff fffe 	bl	0 <_ZN4core5slice14from_raw_parts17h1ab1a4b77b79b2d2E>
  74:	9009      	str	r0, [sp, #36]	; 0x24
  76:	9108      	str	r1, [sp, #32]
  78:	e7ff      	b.n	7a <_ZN8cortex_m3itm13write_aligned17ha9580674e0640633E+0x7a>
/home/breetai/.cargo/registry/src/github.com-1ecc6299db9ec823/cortex-m-0.6.2/src/itm.rs:106
        write_words(
  7a:	9815      	ldr	r0, [sp, #84]	; 0x54
  7c:	9909      	ldr	r1, [sp, #36]	; 0x24
  7e:	9a08      	ldr	r2, [sp, #32]
  80:	f7ff fffe 	bl	0 <_ZN8cortex_m3itm13write_aligned17ha9580674e0640633E>
  84:	e7ff      	b.n	86 <_ZN8cortex_m3itm13write_aligned17ha9580674e0640633E+0x86>
/home/breetai/.cargo/registry/src/github.com-1ecc6299db9ec823/cortex-m-0.6.2/src/itm.rs:112
        let mut left = len & 0b11;
  86:	9810      	ldr	r0, [sp, #64]	; 0x40
  88:	f000 0103 	and.w	r1, r0, #3
  8c:	9117      	str	r1, [sp, #92]	; 0x5c
/home/breetai/.cargo/registry/src/github.com-1ecc6299db9ec823/cortex-m-0.6.2/src/itm.rs:113
        let mut ptr = buffer.as_ptr().add(split);
  8e:	9814      	ldr	r0, [sp, #80]	; 0x50
  90:	9913      	ldr	r1, [sp, #76]	; 0x4c
  92:	f7ff fffe 	bl	0 <_ZN73_$LT$aligned..Aligned$LT$A$C$T$GT$$u20$as$u20$core..ops..deref..Deref$GT$5deref17h4664586d969cc617E>
  96:	9007      	str	r0, [sp, #28]
  98:	9106      	str	r1, [sp, #24]
  9a:	e7ff      	b.n	9c <_ZN8cortex_m3itm13write_aligned17ha9580674e0640633E+0x9c>
  9c:	9807      	ldr	r0, [sp, #28]
  9e:	9906      	ldr	r1, [sp, #24]
  a0:	f7ff fffe 	bl	0 <_ZN4core5slice29_$LT$impl$u20$$u5b$T$u5d$$GT$6as_ptr17h5952ccb4945f3c6fE>
  a4:	9005      	str	r0, [sp, #20]
  a6:	e7ff      	b.n	a8 <_ZN8cortex_m3itm13write_aligned17ha9580674e0640633E+0xa8>
  a8:	9805      	ldr	r0, [sp, #20]
  aa:	990f      	ldr	r1, [sp, #60]	; 0x3c
  ac:	f7ff fffe 	bl	0 <_ZN4core3ptr9const_ptr33_$LT$impl$u20$$BP$const$u20$T$GT$3add17h1a42d795a04a8f32E>
  b0:	9018      	str	r0, [sp, #96]	; 0x60
  b2:	e7ff      	b.n	b4 <_ZN8cortex_m3itm13write_aligned17ha9580674e0640633E+0xb4>
/home/breetai/.cargo/registry/src/github.com-1ecc6299db9ec823/cortex-m-0.6.2/src/itm.rs:116
        if left > 1 {
  b4:	9817      	ldr	r0, [sp, #92]	; 0x5c
  b6:	2801      	cmp	r0, #1
  b8:	d801      	bhi.n	be <_ZN8cortex_m3itm13write_aligned17ha9580674e0640633E+0xbe>
  ba:	e7ff      	b.n	bc <_ZN8cortex_m3itm13write_aligned17ha9580674e0640633E+0xbc>
  bc:	e026      	b.n	10c <_ZN8cortex_m3itm13write_aligned17ha9580674e0640633E+0x10c>
/home/breetai/.cargo/registry/src/github.com-1ecc6299db9ec823/cortex-m-0.6.2/src/itm.rs:117
            while !port.is_fifo_ready() {}
  be:	e7ff      	b.n	c0 <_ZN8cortex_m3itm13write_aligned17ha9580674e0640633E+0xc0>
  c0:	9815      	ldr	r0, [sp, #84]	; 0x54
  c2:	f7ff fffe 	bl	0 <_ZN8cortex_m10peripheral3itm4Stim13is_fifo_ready17h33777971811e7470E>
  c6:	9004      	str	r0, [sp, #16]
  c8:	e7ff      	b.n	ca <_ZN8cortex_m3itm13write_aligned17ha9580674e0640633E+0xca>
  ca:	9804      	ldr	r0, [sp, #16]
  cc:	07c1      	lsls	r1, r0, #31
  ce:	2900      	cmp	r1, #0
  d0:	d005      	beq.n	de <_ZN8cortex_m3itm13write_aligned17ha9580674e0640633E+0xde>
  d2:	e7ff      	b.n	d4 <_ZN8cortex_m3itm13write_aligned17ha9580674e0640633E+0xd4>
/home/breetai/.cargo/registry/src/github.com-1ecc6299db9ec823/cortex-m-0.6.2/src/itm.rs:118
            port.write_u16(ptr::read(ptr as *const u16));
  d4:	9818      	ldr	r0, [sp, #96]	; 0x60
  d6:	f7ff fffe 	bl	0 <_ZN4core3ptr4read17h09d0ff5656a6efaeE>
  da:	9003      	str	r0, [sp, #12]
  dc:	e000      	b.n	e0 <_ZN8cortex_m3itm13write_aligned17ha9580674e0640633E+0xe0>
/home/breetai/.cargo/registry/src/github.com-1ecc6299db9ec823/cortex-m-0.6.2/src/itm.rs:117
            while !port.is_fifo_ready() {}
  de:	e7ef      	b.n	c0 <_ZN8cortex_m3itm13write_aligned17ha9580674e0640633E+0xc0>
/home/breetai/.cargo/registry/src/github.com-1ecc6299db9ec823/cortex-m-0.6.2/src/itm.rs:118
            port.write_u16(ptr::read(ptr as *const u16));
  e0:	9815      	ldr	r0, [sp, #84]	; 0x54
  e2:	9903      	ldr	r1, [sp, #12]
  e4:	f7ff fffe 	bl	0 <_ZN8cortex_m10peripheral3itm4Stim9write_u1617hae3adfb40040ef18E>
  e8:	e7ff      	b.n	ea <_ZN8cortex_m3itm13write_aligned17ha9580674e0640633E+0xea>
/home/breetai/.cargo/registry/src/github.com-1ecc6299db9ec823/cortex-m-0.6.2/src/itm.rs:120
            ptr = ptr.offset(2);
  ea:	9818      	ldr	r0, [sp, #96]	; 0x60
  ec:	2102      	movs	r1, #2
  ee:	f7ff fffe 	bl	0 <_ZN4core3ptr9const_ptr33_$LT$impl$u20$$BP$const$u20$T$GT$6offset17hb09bcd71891303c0E>
  f2:	9002      	str	r0, [sp, #8]
  f4:	e7ff      	b.n	f6 <_ZN8cortex_m3itm13write_aligned17ha9580674e0640633E+0xf6>
  f6:	9802      	ldr	r0, [sp, #8]
  f8:	9018      	str	r0, [sp, #96]	; 0x60
/home/breetai/.cargo/registry/src/github.com-1ecc6299db9ec823/cortex-m-0.6.2/src/itm.rs:121
            left -= 2;
  fa:	9917      	ldr	r1, [sp, #92]	; 0x5c
  fc:	1e8a      	subs	r2, r1, #2
  fe:	2902      	cmp	r1, #2
 100:	9201      	str	r2, [sp, #4]
 102:	d31e      	bcc.n	142 <_ZN8cortex_m3itm13write_aligned17ha9580674e0640633E+0x142>
 104:	e7ff      	b.n	106 <_ZN8cortex_m3itm13write_aligned17ha9580674e0640633E+0x106>
 106:	9801      	ldr	r0, [sp, #4]
 108:	9017      	str	r0, [sp, #92]	; 0x5c
/home/breetai/.cargo/registry/src/github.com-1ecc6299db9ec823/cortex-m-0.6.2/src/itm.rs:116
        if left > 1 {
 10a:	e7ff      	b.n	10c <_ZN8cortex_m3itm13write_aligned17ha9580674e0640633E+0x10c>
/home/breetai/.cargo/registry/src/github.com-1ecc6299db9ec823/cortex-m-0.6.2/src/itm.rs:125
        if left == 1 {
 10c:	9817      	ldr	r0, [sp, #92]	; 0x5c
 10e:	2801      	cmp	r0, #1
 110:	d001      	beq.n	116 <_ZN8cortex_m3itm13write_aligned17ha9580674e0640633E+0x116>
 112:	e7ff      	b.n	114 <_ZN8cortex_m3itm13write_aligned17ha9580674e0640633E+0x114>
 114:	e012      	b.n	13c <_ZN8cortex_m3itm13write_aligned17ha9580674e0640633E+0x13c>
/home/breetai/.cargo/registry/src/github.com-1ecc6299db9ec823/cortex-m-0.6.2/src/itm.rs:126
            while !port.is_fifo_ready() {}
 116:	e7ff      	b.n	118 <_ZN8cortex_m3itm13write_aligned17ha9580674e0640633E+0x118>
 118:	9815      	ldr	r0, [sp, #84]	; 0x54
 11a:	f7ff fffe 	bl	0 <_ZN8cortex_m10peripheral3itm4Stim13is_fifo_ready17h33777971811e7470E>
 11e:	9000      	str	r0, [sp, #0]
 120:	e7ff      	b.n	122 <_ZN8cortex_m3itm13write_aligned17ha9580674e0640633E+0x122>
 122:	9800      	ldr	r0, [sp, #0]
 124:	07c1      	lsls	r1, r0, #31
 126:	2900      	cmp	r1, #0
 128:	d006      	beq.n	138 <_ZN8cortex_m3itm13write_aligned17ha9580674e0640633E+0x138>
 12a:	e7ff      	b.n	12c <_ZN8cortex_m3itm13write_aligned17ha9580674e0640633E+0x12c>
/home/breetai/.cargo/registry/src/github.com-1ecc6299db9ec823/cortex-m-0.6.2/src/itm.rs:127
            port.write_u8(*ptr);
 12c:	9818      	ldr	r0, [sp, #96]	; 0x60
 12e:	7801      	ldrb	r1, [r0, #0]
 130:	9815      	ldr	r0, [sp, #84]	; 0x54
 132:	f7ff fffe 	bl	0 <_ZN8cortex_m10peripheral3itm4Stim8write_u817haee3c7a8a78c9ceaE>
 136:	e000      	b.n	13a <_ZN8cortex_m3itm13write_aligned17ha9580674e0640633E+0x13a>
/home/breetai/.cargo/registry/src/github.com-1ecc6299db9ec823/cortex-m-0.6.2/src/itm.rs:126
            while !port.is_fifo_ready() {}
 138:	e7ee      	b.n	118 <_ZN8cortex_m3itm13write_aligned17ha9580674e0640633E+0x118>
/home/breetai/.cargo/registry/src/github.com-1ecc6299db9ec823/cortex-m-0.6.2/src/itm.rs:125
        if left == 1 {
 13a:	e7ff      	b.n	13c <_ZN8cortex_m3itm13write_aligned17ha9580674e0640633E+0x13c>
/home/breetai/.cargo/registry/src/github.com-1ecc6299db9ec823/cortex-m-0.6.2/src/itm.rs:130
}
 13c:	e7ff      	b.n	13e <_ZN8cortex_m3itm13write_aligned17ha9580674e0640633E+0x13e>
 13e:	b01e      	add	sp, #120	; 0x78
 140:	bd80      	pop	{r7, pc}
/home/breetai/.cargo/registry/src/github.com-1ecc6299db9ec823/cortex-m-0.6.2/src/itm.rs:121
            left -= 2;
 142:	f240 0000 	movw	r0, #0
 146:	f2c0 0000 	movt	r0, #0
 14a:	f240 0200 	movw	r2, #0
 14e:	f2c0 0200 	movt	r2, #0
 152:	2121      	movs	r1, #33	; 0x21
 154:	f7ff fffe 	bl	0 <_ZN4core9panicking5panic17h8a599e70764df7ecE>
 158:	defe      	udf	#254	; 0xfe

cortex_m-bde398208d4285f9.cortex_m.9i9xlcl7-cgu.2.rcgu.o:     file format elf32-littlearm

SYMBOL TABLE:
00000000 l    df *ABS*	00000000 cortex_m.9i9xlcl7-cgu.2
00000000 l       .debug_str	00000000 
00000041 l       .debug_str	00000000 
00000099 l       .debug_str	00000000 
000000e6 l       .debug_str	00000000 
000000ed l       .debug_str	00000000 
000000f0 l       .debug_str	00000000 
000000f4 l       .debug_str	00000000 
000000fd l       .debug_str	00000000 
00000108 l       .debug_str	00000000 
0000010c l       .debug_str	00000000 
0000011b l       .debug_str	00000000 
00000125 l       .debug_str	00000000 
00000136 l       .debug_str	00000000 
0000013f l       .debug_str	00000000 
0000014a l       .debug_str	00000000 
00000151 l       .debug_str	00000000 
0000015e l       .debug_str	00000000 
00000165 l       .debug_str	00000000 
0000016d l       .debug_str	00000000 
00000177 l       .debug_str	00000000 
0000019d l       .debug_str	00000000 
000001a2 l       .debug_str	00000000 
000001a9 l       .debug_str	00000000 
000001ac l       .debug_str	00000000 
000001b0 l       .debug_str	00000000 
000001b7 l       .debug_str	00000000 
000001bb l       .debug_str	00000000 
000001be l       .debug_str	00000000 
000001c1 l       .debug_str	00000000 
000001c6 l       .debug_str	00000000 
000001cc l       .debug_str	00000000 
000001d3 l       .debug_str	00000000 
000001db l       .debug_str	00000000 
000001e5 l       .debug_str	00000000 
000001f3 l       .debug_str	00000000 
000001fc l       .debug_str	00000000 
000001fe l       .debug_str	00000000 
00000246 l       .debug_str	00000000 
00000270 l       .debug_str	00000000 
000002b6 l       .debug_str	00000000 
000002bc l       .debug_str	00000000 
00000323 l       .debug_str	00000000 
0000038b l       .debug_str	00000000 
000003f6 l       .debug_str	00000000 
000003fb l       .debug_str	00000000 
00000422 l       .debug_str	00000000 
00000424 l       .debug_str	00000000 
0000042a l       .debug_str	00000000 
0000042e l       .debug_str	00000000 
00000433 l       .debug_str	00000000 
00000438 l       .debug_str	00000000 
0000043e l       .debug_str	00000000 
00000444 l       .debug_str	00000000 
0000044b l       .debug_str	00000000 
00000450 l       .debug_str	00000000 
00000456 l       .debug_str	00000000 
0000045b l       .debug_str	00000000 
0000045f l       .debug_str	00000000 
0000046d l       .debug_str	00000000 
00000477 l       .debug_str	00000000 
0000047b l       .debug_str	00000000 
00000483 l       .debug_str	00000000 
0000048b l       .debug_str	00000000 
0000049f l       .debug_str	00000000 
000004ab l       .debug_str	00000000 
000004b6 l       .debug_str	00000000 
000004c0 l       .debug_str	00000000 
000004da l       .debug_str	00000000 
000004ee l       .debug_str	00000000 
000004f7 l       .debug_str	00000000 
000004fe l       .debug_str	00000000 
00000509 l       .debug_str	00000000 
0000050e l       .debug_str	00000000 
00000519 l       .debug_str	00000000 
00000524 l       .debug_str	00000000 
0000052e l       .debug_str	00000000 
00000533 l       .debug_str	00000000 
0000053e l       .debug_str	00000000 
00000565 l       .debug_str	00000000 
00000570 l       .debug_str	00000000 
0000057c l       .debug_str	00000000 
00000585 l       .debug_str	00000000 
00000000 l     O .rodata..L__unnamed_1	00000010 .L__unnamed_1
00000000 l     O .rodata..L__unnamed_10	0000000c .L__unnamed_10
00000000 l     O .rodata..L__unnamed_11	00000006 .L__unnamed_11
00000000 l     O .rodata..L__unnamed_12	00000009 .L__unnamed_12
00000000 l     O .rodata..L__unnamed_13	0000000a .L__unnamed_13
00000000 l     O .rodata..L__unnamed_14	00000009 .L__unnamed_14
00000000 l     O .rodata.cst4	00000004 .L__unnamed_15
00000000 l     O .rodata..L__unnamed_2	00000010 .L__unnamed_2
00000000 l     O .rodata..L__unnamed_3	00000007 .L__unnamed_3
00000000 l     O .rodata..L__unnamed_4	0000000e .L__unnamed_4
00000000 l     O .rodata..L__unnamed_5	00000009 .L__unnamed_5
00000000 l     O .rodata.cst16	00000010 .L__unnamed_6
00000000 l     O .rodata.cst8	00000008 .L__unnamed_7
00000000 l     O .rodata..L__unnamed_8	0000000a .L__unnamed_8
00000000 l     O .rodata..L__unnamed_9	00000006 .L__unnamed_9
00000000 l    d  .text._ZN42_$LT$$RF$T$u20$as$u20$core..fmt..Debug$GT$3fmt17h33eea135645950f3E	00000000 .text._ZN42_$LT$$RF$T$u20$as$u20$core..fmt..Debug$GT$3fmt17h33eea135645950f3E
00000000 l    d  .text._ZN8cortex_m10peripheral3scb13SystemHandler5index17hcc47551a9ac93a5fE	00000000 .text._ZN8cortex_m10peripheral3scb13SystemHandler5index17hcc47551a9ac93a5fE
00000000 l    d  .text._ZN73_$LT$cortex_m..peripheral..scb..Exception$u20$as$u20$core..fmt..Debug$GT$3fmt17h21256d689282b0a5E	00000000 .text._ZN73_$LT$cortex_m..peripheral..scb..Exception$u20$as$u20$core..fmt..Debug$GT$3fmt17h21256d689282b0a5E
00000000 l    d  .text._ZN74_$LT$cortex_m..peripheral..scb..VectActive$u20$as$u20$core..fmt..Debug$GT$3fmt17h3f2b5c41be16fa9bE	00000000 .text._ZN74_$LT$cortex_m..peripheral..scb..VectActive$u20$as$u20$core..fmt..Debug$GT$3fmt17h3f2b5c41be16fa9bE
00000000 l    d  .text._ZN77_$LT$cortex_m..peripheral..scb..SystemHandler$u20$as$u20$core..fmt..Debug$GT$3fmt17h776a2cd83f36b0b2E	00000000 .text._ZN77_$LT$cortex_m..peripheral..scb..SystemHandler$u20$as$u20$core..fmt..Debug$GT$3fmt17h776a2cd83f36b0b2E
00000000 l    d  .rodata..L__unnamed_1	00000000 .rodata..L__unnamed_1
00000000 l    d  .rodata..L__unnamed_2	00000000 .rodata..L__unnamed_2
00000000 l    d  .debug_abbrev	00000000 .debug_abbrev
00000000 l    d  .debug_info	00000000 .debug_info
00000000 l    d  .debug_ranges	00000000 .debug_ranges
00000000 l    d  .debug_frame	00000000 .debug_frame
00000000 l    d  .debug_line	00000000 .debug_line
00000000 g     F .text._ZN42_$LT$$RF$T$u20$as$u20$core..fmt..Debug$GT$3fmt17h33eea135645950f3E	0000001e _ZN42_$LT$$RF$T$u20$as$u20$core..fmt..Debug$GT$3fmt17h33eea135645950f3E
00000000         *UND*	00000000 _ZN42_$LT$$RF$T$u20$as$u20$core..fmt..Debug$GT$3fmt17h3a7cb2e5dd6e07b8E
00000000         *UND*	00000000 _ZN4core3fmt8builders10DebugTuple5field17hcb5f974309b8f652E
00000000         *UND*	00000000 _ZN4core3fmt8builders10DebugTuple6finish17h9fe84bda9ef11623E
00000000         *UND*	00000000 _ZN4core3fmt8builders11DebugStruct5field17h0489bb77c31f6448E
00000000         *UND*	00000000 _ZN4core3fmt8builders11DebugStruct6finish17h955a64785ad6fcb1E
00000000         *UND*	00000000 _ZN4core3fmt9Formatter11debug_tuple17h0bae6e4b2c8fffa4E
00000000         *UND*	00000000 _ZN4core3fmt9Formatter12debug_struct17h7d5362ae742761abE
00000000         *UND*	00000000 _ZN4core3ptr13drop_in_place17h4de5728cd6b9af80E
00000000         *UND*	00000000 _ZN4core3ptr13drop_in_place17ha48e173037059807E
00000000 g     F .text._ZN73_$LT$cortex_m..peripheral..scb..Exception$u20$as$u20$core..fmt..Debug$GT$3fmt17h21256d689282b0a5E	00000160 _ZN73_$LT$cortex_m..peripheral..scb..Exception$u20$as$u20$core..fmt..Debug$GT$3fmt17h21256d689282b0a5E
00000000 g     F .text._ZN74_$LT$cortex_m..peripheral..scb..VectActive$u20$as$u20$core..fmt..Debug$GT$3fmt17h3f2b5c41be16fa9bE	000000ea _ZN74_$LT$cortex_m..peripheral..scb..VectActive$u20$as$u20$core..fmt..Debug$GT$3fmt17h3f2b5c41be16fa9bE
00000000 g     F .text._ZN77_$LT$cortex_m..peripheral..scb..SystemHandler$u20$as$u20$core..fmt..Debug$GT$3fmt17h776a2cd83f36b0b2E	0000011a _ZN77_$LT$cortex_m..peripheral..scb..SystemHandler$u20$as$u20$core..fmt..Debug$GT$3fmt17h776a2cd83f36b0b2E
00000000 g     F .text._ZN8cortex_m10peripheral3scb13SystemHandler5index17hcc47551a9ac93a5fE	0000005e _ZN8cortex_m10peripheral3scb13SystemHandler5index17hcc47551a9ac93a5fE



Disassembly of section .text._ZN42_$LT$$RF$T$u20$as$u20$core..fmt..Debug$GT$3fmt17h33eea135645950f3E:

00000000 <_ZN42_$LT$$RF$T$u20$as$u20$core..fmt..Debug$GT$3fmt17h33eea135645950f3E>:
_ZN42_$LT$$RF$T$u20$as$u20$core..fmt..Debug$GT$3fmt17h33eea135645950f3E():
/home/breetai/.rustup/toolchains/nightly-x86_64-unknown-linux-gnu/lib/rustlib/src/rust/src/libcore/fmt/mod.rs:1973
macro_rules! fmt_refs {
    ($($tr:ident),*) => {
        $(
        #[stable(feature = "rust1", since = "1.0.0")]
        impl<T: ?Sized + $tr> $tr for &T {
            fn fmt(&self, f: &mut Formatter<'_>) -> Result { $tr::fmt(&**self, f) }
   0:	b580      	push	{r7, lr}
   2:	466f      	mov	r7, sp
   4:	b084      	sub	sp, #16
   6:	9002      	str	r0, [sp, #8]
   8:	9103      	str	r1, [sp, #12]
   a:	6800      	ldr	r0, [r0, #0]
   c:	f7ff fffe 	bl	0 <_ZN42_$LT$$RF$T$u20$as$u20$core..fmt..Debug$GT$3fmt17h33eea135645950f3E>
  10:	9001      	str	r0, [sp, #4]
  12:	e7ff      	b.n	14 <_ZN42_$LT$$RF$T$u20$as$u20$core..fmt..Debug$GT$3fmt17h33eea135645950f3E+0x14>
  14:	9801      	ldr	r0, [sp, #4]
  16:	f000 0001 	and.w	r0, r0, #1
  1a:	b004      	add	sp, #16
  1c:	bd80      	pop	{r7, pc}

Disassembly of section .text._ZN8cortex_m10peripheral3scb13SystemHandler5index17hcc47551a9ac93a5fE:

00000000 <_ZN8cortex_m10peripheral3scb13SystemHandler5index17hcc47551a9ac93a5fE>:
_ZN8cortex_m10peripheral3scb13SystemHandler5index17hcc47551a9ac93a5fE():
/home/breetai/.cargo/registry/src/github.com-1ecc6299db9ec823/cortex-m-0.6.2/src/peripheral/scb.rs:767
    /// System Tick interrupt
    SysTick,
}

impl SystemHandler {
    fn index(self) -> u8 {
   0:	b082      	sub	sp, #8
   2:	4601      	mov	r1, r0
   4:	f88d 0006 	strb.w	r0, [sp, #6]
/home/breetai/.cargo/registry/src/github.com-1ecc6299db9ec823/cortex-m-0.6.2/src/peripheral/scb.rs:770
        match self {
            #[cfg(not(armv6m))]
            SystemHandler::MemoryManagement => 4,
   8:	f89d 0006 	ldrb.w	r0, [sp, #6]
   c:	9000      	str	r0, [sp, #0]
   e:	9900      	ldr	r1, [sp, #0]
  10:	e8df f001 	tbb	[pc, r1]
  14:	15110d09 	.word	0x15110d09
  18:	00041d19 	.word	0x00041d19
  1c:	200f      	movs	r0, #15
/home/breetai/.cargo/registry/src/github.com-1ecc6299db9ec823/cortex-m-0.6.2/src/peripheral/scb.rs:781
            SystemHandler::SecureFault => 7,
            SystemHandler::SVCall => 11,
            #[cfg(not(armv6m))]
            SystemHandler::DebugMonitor => 12,
            SystemHandler::PendSV => 14,
            SystemHandler::SysTick => 15,
  1e:	f88d 0007 	strb.w	r0, [sp, #7]
/home/breetai/.cargo/registry/src/github.com-1ecc6299db9ec823/cortex-m-0.6.2/src/peripheral/scb.rs:768
        match self {
  22:	e018      	b.n	56 <_ZN8cortex_m10peripheral3scb13SystemHandler5index17hcc47551a9ac93a5fE+0x56>
  24:	defe      	udf	#254	; 0xfe
  26:	2004      	movs	r0, #4
/home/breetai/.cargo/registry/src/github.com-1ecc6299db9ec823/cortex-m-0.6.2/src/peripheral/scb.rs:770
            SystemHandler::MemoryManagement => 4,
  28:	f88d 0007 	strb.w	r0, [sp, #7]
/home/breetai/.cargo/registry/src/github.com-1ecc6299db9ec823/cortex-m-0.6.2/src/peripheral/scb.rs:768
        match self {
  2c:	e013      	b.n	56 <_ZN8cortex_m10peripheral3scb13SystemHandler5index17hcc47551a9ac93a5fE+0x56>
  2e:	2005      	movs	r0, #5
/home/breetai/.cargo/registry/src/github.com-1ecc6299db9ec823/cortex-m-0.6.2/src/peripheral/scb.rs:772
            SystemHandler::BusFault => 5,
  30:	f88d 0007 	strb.w	r0, [sp, #7]
/home/breetai/.cargo/registry/src/github.com-1ecc6299db9ec823/cortex-m-0.6.2/src/peripheral/scb.rs:768
        match self {
  34:	e00f      	b.n	56 <_ZN8cortex_m10peripheral3scb13SystemHandler5index17hcc47551a9ac93a5fE+0x56>
  36:	2006      	movs	r0, #6
/home/breetai/.cargo/registry/src/github.com-1ecc6299db9ec823/cortex-m-0.6.2/src/peripheral/scb.rs:774
            SystemHandler::UsageFault => 6,
  38:	f88d 0007 	strb.w	r0, [sp, #7]
/home/breetai/.cargo/registry/src/github.com-1ecc6299db9ec823/cortex-m-0.6.2/src/peripheral/scb.rs:768
        match self {
  3c:	e00b      	b.n	56 <_ZN8cortex_m10peripheral3scb13SystemHandler5index17hcc47551a9ac93a5fE+0x56>
  3e:	200b      	movs	r0, #11
/home/breetai/.cargo/registry/src/github.com-1ecc6299db9ec823/cortex-m-0.6.2/src/peripheral/scb.rs:777
            SystemHandler::SVCall => 11,
  40:	f88d 0007 	strb.w	r0, [sp, #7]
/home/breetai/.cargo/registry/src/github.com-1ecc6299db9ec823/cortex-m-0.6.2/src/peripheral/scb.rs:768
        match self {
  44:	e007      	b.n	56 <_ZN8cortex_m10peripheral3scb13SystemHandler5index17hcc47551a9ac93a5fE+0x56>
  46:	200c      	movs	r0, #12
/home/breetai/.cargo/registry/src/github.com-1ecc6299db9ec823/cortex-m-0.6.2/src/peripheral/scb.rs:779
            SystemHandler::DebugMonitor => 12,
  48:	f88d 0007 	strb.w	r0, [sp, #7]
/home/breetai/.cargo/registry/src/github.com-1ecc6299db9ec823/cortex-m-0.6.2/src/peripheral/scb.rs:768
        match self {
  4c:	e003      	b.n	56 <_ZN8cortex_m10peripheral3scb13SystemHandler5index17hcc47551a9ac93a5fE+0x56>
  4e:	200e      	movs	r0, #14
/home/breetai/.cargo/registry/src/github.com-1ecc6299db9ec823/cortex-m-0.6.2/src/peripheral/scb.rs:780
            SystemHandler::PendSV => 14,
  50:	f88d 0007 	strb.w	r0, [sp, #7]
/home/breetai/.cargo/registry/src/github.com-1ecc6299db9ec823/cortex-m-0.6.2/src/peripheral/scb.rs:768
        match self {
  54:	e7ff      	b.n	56 <_ZN8cortex_m10peripheral3scb13SystemHandler5index17hcc47551a9ac93a5fE+0x56>
/home/breetai/.cargo/registry/src/github.com-1ecc6299db9ec823/cortex-m-0.6.2/src/peripheral/scb.rs:783
        }
    }
  56:	f89d 0007 	ldrb.w	r0, [sp, #7]
  5a:	b002      	add	sp, #8
  5c:	4770      	bx	lr

Disassembly of section .text._ZN73_$LT$cortex_m..peripheral..scb..Exception$u20$as$u20$core..fmt..Debug$GT$3fmt17h21256d689282b0a5E:

00000000 <_ZN73_$LT$cortex_m..peripheral..scb..Exception$u20$as$u20$core..fmt..Debug$GT$3fmt17h21256d689282b0a5E>:
_ZN73_$LT$cortex_m..peripheral..scb..Exception$u20$as$u20$core..fmt..Debug$GT$3fmt17h21256d689282b0a5E():
/home/breetai/.cargo/registry/src/github.com-1ecc6299db9ec823/cortex-m-0.6.2/src/peripheral/scb.rs:198
#[derive(Clone, Copy, Debug, Eq, PartialEq)]
   0:	b580      	push	{r7, lr}
   2:	466f      	mov	r7, sp
   4:	b0a2      	sub	sp, #136	; 0x88
   6:	9020      	str	r0, [sp, #128]	; 0x80
   8:	9121      	str	r1, [sp, #132]	; 0x84
   a:	9004      	str	r0, [sp, #16]
   c:	9804      	ldr	r0, [sp, #16]
   e:	7800      	ldrb	r0, [r0, #0]
  10:	9102      	str	r1, [sp, #8]
  12:	9001      	str	r0, [sp, #4]
  14:	9901      	ldr	r1, [sp, #4]
  16:	e8df f001 	tbb	[pc, r1]
  1a:	2110      	.short	0x2110
  1c:	65544332 	.word	0x65544332
  20:	00058776 	.word	0x00058776
  24:	f240 0200 	movw	r2, #0
  28:	f2c0 0200 	movt	r2, #0
  2c:	a81d      	add	r0, sp, #116	; 0x74
  2e:	2307      	movs	r3, #7
  30:	9902      	ldr	r1, [sp, #8]
  32:	f7ff fffe 	bl	0 <_ZN4core3fmt9Formatter11debug_tuple17h0bae6e4b2c8fffa4E>
  36:	e088      	b.n	14a <_ZN73_$LT$cortex_m..peripheral..scb..Exception$u20$as$u20$core..fmt..Debug$GT$3fmt17h21256d689282b0a5E+0x14a>
  38:	defe      	udf	#254	; 0xfe
  3a:	f240 0200 	movw	r2, #0
  3e:	f2c0 0200 	movt	r2, #0
  42:	a805      	add	r0, sp, #20
  44:	230e      	movs	r3, #14
  46:	9902      	ldr	r1, [sp, #8]
  48:	f7ff fffe 	bl	0 <_ZN4core3fmt9Formatter11debug_tuple17h0bae6e4b2c8fffa4E>
  4c:	e7ff      	b.n	4e <_ZN73_$LT$cortex_m..peripheral..scb..Exception$u20$as$u20$core..fmt..Debug$GT$3fmt17h21256d689282b0a5E+0x4e>
  4e:	a805      	add	r0, sp, #20
  50:	f7ff fffe 	bl	0 <_ZN4core3fmt8builders10DebugTuple6finish17h9fe84bda9ef11623E>
  54:	f807 0c79 	strb.w	r0, [r7, #-121]
  58:	e7ff      	b.n	5a <_ZN73_$LT$cortex_m..peripheral..scb..Exception$u20$as$u20$core..fmt..Debug$GT$3fmt17h21256d689282b0a5E+0x5a>
  5a:	e07d      	b.n	158 <_ZN73_$LT$cortex_m..peripheral..scb..Exception$u20$as$u20$core..fmt..Debug$GT$3fmt17h21256d689282b0a5E+0x158>
  5c:	f240 0200 	movw	r2, #0
  60:	f2c0 0200 	movt	r2, #0
  64:	a808      	add	r0, sp, #32
  66:	2309      	movs	r3, #9
  68:	9902      	ldr	r1, [sp, #8]
  6a:	f7ff fffe 	bl	0 <_ZN4core3fmt9Formatter11debug_tuple17h0bae6e4b2c8fffa4E>
  6e:	e7ff      	b.n	70 <_ZN73_$LT$cortex_m..peripheral..scb..Exception$u20$as$u20$core..fmt..Debug$GT$3fmt17h21256d689282b0a5E+0x70>
  70:	a808      	add	r0, sp, #32
  72:	f7ff fffe 	bl	0 <_ZN4core3fmt8builders10DebugTuple6finish17h9fe84bda9ef11623E>
  76:	f807 0c79 	strb.w	r0, [r7, #-121]
  7a:	e7ff      	b.n	7c <_ZN73_$LT$cortex_m..peripheral..scb..Exception$u20$as$u20$core..fmt..Debug$GT$3fmt17h21256d689282b0a5E+0x7c>
  7c:	e06c      	b.n	158 <_ZN73_$LT$cortex_m..peripheral..scb..Exception$u20$as$u20$core..fmt..Debug$GT$3fmt17h21256d689282b0a5E+0x158>
  7e:	f240 0200 	movw	r2, #0
  82:	f2c0 0200 	movt	r2, #0
  86:	a80b      	add	r0, sp, #44	; 0x2c
  88:	2310      	movs	r3, #16
  8a:	9902      	ldr	r1, [sp, #8]
  8c:	f7ff fffe 	bl	0 <_ZN4core3fmt9Formatter11debug_tuple17h0bae6e4b2c8fffa4E>
  90:	e7ff      	b.n	92 <_ZN73_$LT$cortex_m..peripheral..scb..Exception$u20$as$u20$core..fmt..Debug$GT$3fmt17h21256d689282b0a5E+0x92>
  92:	a80b      	add	r0, sp, #44	; 0x2c
  94:	f7ff fffe 	bl	0 <_ZN4core3fmt8builders10DebugTuple6finish17h9fe84bda9ef11623E>
  98:	f807 0c79 	strb.w	r0, [r7, #-121]
  9c:	e7ff      	b.n	9e <_ZN73_$LT$cortex_m..peripheral..scb..Exception$u20$as$u20$core..fmt..Debug$GT$3fmt17h21256d689282b0a5E+0x9e>
  9e:	e05b      	b.n	158 <_ZN73_$LT$cortex_m..peripheral..scb..Exception$u20$as$u20$core..fmt..Debug$GT$3fmt17h21256d689282b0a5E+0x158>
  a0:	f240 0200 	movw	r2, #0
  a4:	f2c0 0200 	movt	r2, #0
  a8:	a80e      	add	r0, sp, #56	; 0x38
  aa:	2308      	movs	r3, #8
  ac:	9902      	ldr	r1, [sp, #8]
  ae:	f7ff fffe 	bl	0 <_ZN4core3fmt9Formatter11debug_tuple17h0bae6e4b2c8fffa4E>
  b2:	e7ff      	b.n	b4 <_ZN73_$LT$cortex_m..peripheral..scb..Exception$u20$as$u20$core..fmt..Debug$GT$3fmt17h21256d689282b0a5E+0xb4>
  b4:	a80e      	add	r0, sp, #56	; 0x38
  b6:	f7ff fffe 	bl	0 <_ZN4core3fmt8builders10DebugTuple6finish17h9fe84bda9ef11623E>
  ba:	f807 0c79 	strb.w	r0, [r7, #-121]
  be:	e7ff      	b.n	c0 <_ZN73_$LT$cortex_m..peripheral..scb..Exception$u20$as$u20$core..fmt..Debug$GT$3fmt17h21256d689282b0a5E+0xc0>
  c0:	e04a      	b.n	158 <_ZN73_$LT$cortex_m..peripheral..scb..Exception$u20$as$u20$core..fmt..Debug$GT$3fmt17h21256d689282b0a5E+0x158>
  c2:	f240 0200 	movw	r2, #0
  c6:	f2c0 0200 	movt	r2, #0
  ca:	a811      	add	r0, sp, #68	; 0x44
  cc:	230a      	movs	r3, #10
  ce:	9902      	ldr	r1, [sp, #8]
  d0:	f7ff fffe 	bl	0 <_ZN4core3fmt9Formatter11debug_tuple17h0bae6e4b2c8fffa4E>
  d4:	e7ff      	b.n	d6 <_ZN73_$LT$cortex_m..peripheral..scb..Exception$u20$as$u20$core..fmt..Debug$GT$3fmt17h21256d689282b0a5E+0xd6>
  d6:	a811      	add	r0, sp, #68	; 0x44
  d8:	f7ff fffe 	bl	0 <_ZN4core3fmt8builders10DebugTuple6finish17h9fe84bda9ef11623E>
  dc:	f807 0c79 	strb.w	r0, [r7, #-121]
  e0:	e7ff      	b.n	e2 <_ZN73_$LT$cortex_m..peripheral..scb..Exception$u20$as$u20$core..fmt..Debug$GT$3fmt17h21256d689282b0a5E+0xe2>
  e2:	e039      	b.n	158 <_ZN73_$LT$cortex_m..peripheral..scb..Exception$u20$as$u20$core..fmt..Debug$GT$3fmt17h21256d689282b0a5E+0x158>
  e4:	f240 0200 	movw	r2, #0
  e8:	f2c0 0200 	movt	r2, #0
  ec:	a814      	add	r0, sp, #80	; 0x50
  ee:	2306      	movs	r3, #6
  f0:	9902      	ldr	r1, [sp, #8]
  f2:	f7ff fffe 	bl	0 <_ZN4core3fmt9Formatter11debug_tuple17h0bae6e4b2c8fffa4E>
  f6:	e7ff      	b.n	f8 <_ZN73_$LT$cortex_m..peripheral..scb..Exception$u20$as$u20$core..fmt..Debug$GT$3fmt17h21256d689282b0a5E+0xf8>
  f8:	a814      	add	r0, sp, #80	; 0x50
  fa:	f7ff fffe 	bl	0 <_ZN4core3fmt8builders10DebugTuple6finish17h9fe84bda9ef11623E>
  fe:	f807 0c79 	strb.w	r0, [r7, #-121]
 102:	e7ff      	b.n	104 <_ZN73_$LT$cortex_m..peripheral..scb..Exception$u20$as$u20$core..fmt..Debug$GT$3fmt17h21256d689282b0a5E+0x104>
 104:	e028      	b.n	158 <_ZN73_$LT$cortex_m..peripheral..scb..Exception$u20$as$u20$core..fmt..Debug$GT$3fmt17h21256d689282b0a5E+0x158>
 106:	f240 0200 	movw	r2, #0
 10a:	f2c0 0200 	movt	r2, #0
 10e:	a817      	add	r0, sp, #92	; 0x5c
 110:	230c      	movs	r3, #12
 112:	9902      	ldr	r1, [sp, #8]
 114:	f7ff fffe 	bl	0 <_ZN4core3fmt9Formatter11debug_tuple17h0bae6e4b2c8fffa4E>
 118:	e7ff      	b.n	11a <_ZN73_$LT$cortex_m..peripheral..scb..Exception$u20$as$u20$core..fmt..Debug$GT$3fmt17h21256d689282b0a5E+0x11a>
 11a:	a817      	add	r0, sp, #92	; 0x5c
 11c:	f7ff fffe 	bl	0 <_ZN4core3fmt8builders10DebugTuple6finish17h9fe84bda9ef11623E>
 120:	f807 0c79 	strb.w	r0, [r7, #-121]
 124:	e7ff      	b.n	126 <_ZN73_$LT$cortex_m..peripheral..scb..Exception$u20$as$u20$core..fmt..Debug$GT$3fmt17h21256d689282b0a5E+0x126>
 126:	e017      	b.n	158 <_ZN73_$LT$cortex_m..peripheral..scb..Exception$u20$as$u20$core..fmt..Debug$GT$3fmt17h21256d689282b0a5E+0x158>
 128:	f240 0200 	movw	r2, #0
 12c:	f2c0 0200 	movt	r2, #0
 130:	a81a      	add	r0, sp, #104	; 0x68
 132:	2306      	movs	r3, #6
 134:	9902      	ldr	r1, [sp, #8]
 136:	f7ff fffe 	bl	0 <_ZN4core3fmt9Formatter11debug_tuple17h0bae6e4b2c8fffa4E>
 13a:	e7ff      	b.n	13c <_ZN73_$LT$cortex_m..peripheral..scb..Exception$u20$as$u20$core..fmt..Debug$GT$3fmt17h21256d689282b0a5E+0x13c>
 13c:	a81a      	add	r0, sp, #104	; 0x68
 13e:	f7ff fffe 	bl	0 <_ZN4core3fmt8builders10DebugTuple6finish17h9fe84bda9ef11623E>
 142:	f807 0c79 	strb.w	r0, [r7, #-121]
 146:	e7ff      	b.n	148 <_ZN73_$LT$cortex_m..peripheral..scb..Exception$u20$as$u20$core..fmt..Debug$GT$3fmt17h21256d689282b0a5E+0x148>
 148:	e006      	b.n	158 <_ZN73_$LT$cortex_m..peripheral..scb..Exception$u20$as$u20$core..fmt..Debug$GT$3fmt17h21256d689282b0a5E+0x158>
 14a:	a81d      	add	r0, sp, #116	; 0x74
 14c:	f7ff fffe 	bl	0 <_ZN4core3fmt8builders10DebugTuple6finish17h9fe84bda9ef11623E>
 150:	f807 0c79 	strb.w	r0, [r7, #-121]
 154:	e7ff      	b.n	156 <_ZN73_$LT$cortex_m..peripheral..scb..Exception$u20$as$u20$core..fmt..Debug$GT$3fmt17h21256d689282b0a5E+0x156>
 156:	e7ff      	b.n	158 <_ZN73_$LT$cortex_m..peripheral..scb..Exception$u20$as$u20$core..fmt..Debug$GT$3fmt17h21256d689282b0a5E+0x158>
 158:	f817 0c79 	ldrb.w	r0, [r7, #-121]
 15c:	b022      	add	sp, #136	; 0x88
 15e:	bd80      	pop	{r7, pc}

Disassembly of section .text._ZN74_$LT$cortex_m..peripheral..scb..VectActive$u20$as$u20$core..fmt..Debug$GT$3fmt17h3f2b5c41be16fa9bE:

00000000 <_ZN74_$LT$cortex_m..peripheral..scb..VectActive$u20$as$u20$core..fmt..Debug$GT$3fmt17h3f2b5c41be16fa9bE>:
_ZN74_$LT$cortex_m..peripheral..scb..VectActive$u20$as$u20$core..fmt..Debug$GT$3fmt17h3f2b5c41be16fa9bE():
/home/breetai/.cargo/registry/src/github.com-1ecc6299db9ec823/cortex-m-0.6.2/src/peripheral/scb.rs:264
#[derive(Clone, Copy, Debug, Eq, PartialEq)]
   0:	b580      	push	{r7, lr}
   2:	466f      	mov	r7, sp
   4:	b096      	sub	sp, #88	; 0x58
   6:	9012      	str	r0, [sp, #72]	; 0x48
   8:	9113      	str	r1, [sp, #76]	; 0x4c
   a:	9007      	str	r0, [sp, #28]
   c:	9807      	ldr	r0, [sp, #28]
   e:	7800      	ldrb	r0, [r0, #0]
  10:	4602      	mov	r2, r0
  12:	2800      	cmp	r0, #0
  14:	9105      	str	r1, [sp, #20]
  16:	9204      	str	r2, [sp, #16]
  18:	d016      	beq.n	48 <_ZN74_$LT$cortex_m..peripheral..scb..VectActive$u20$as$u20$core..fmt..Debug$GT$3fmt17h3f2b5c41be16fa9bE+0x48>
  1a:	e7ff      	b.n	1c <_ZN74_$LT$cortex_m..peripheral..scb..VectActive$u20$as$u20$core..fmt..Debug$GT$3fmt17h3f2b5c41be16fa9bE+0x1c>
